
Test_DS1307.elf:     file format elf32-avr

Sections:
Idx Name          Size      VMA       LMA       File off  Algn
  0 .text         00000d46  00000000  00000000  00000094  2**1
                  CONTENTS, ALLOC, LOAD, READONLY, CODE
  1 .data         0000001c  00800060  00000d46  00000dda  2**0
                  CONTENTS, ALLOC, LOAD, DATA
  2 .bss          0000000e  0080007c  0080007c  00000df6  2**0
                  ALLOC
  3 .comment      0000005c  00000000  00000000  00000df6  2**0
                  CONTENTS, READONLY
  4 .note.gnu.avr.deviceinfo 0000003c  00000000  00000000  00000e54  2**2
                  CONTENTS, READONLY
  5 .debug_aranges 000000b0  00000000  00000000  00000e90  2**0
                  CONTENTS, READONLY, DEBUGGING
  6 .debug_info   000010a3  00000000  00000000  00000f40  2**0
                  CONTENTS, READONLY, DEBUGGING
  7 .debug_abbrev 00000719  00000000  00000000  00001fe3  2**0
                  CONTENTS, READONLY, DEBUGGING
  8 .debug_line   00000967  00000000  00000000  000026fc  2**0
                  CONTENTS, READONLY, DEBUGGING
  9 .debug_frame  0000024c  00000000  00000000  00003064  2**2
                  CONTENTS, READONLY, DEBUGGING
 10 .debug_str    00000446  00000000  00000000  000032b0  2**0
                  CONTENTS, READONLY, DEBUGGING
 11 .debug_loc    0000081b  00000000  00000000  000036f6  2**0
                  CONTENTS, READONLY, DEBUGGING
 12 .debug_ranges 000000b8  00000000  00000000  00003f11  2**0
                  CONTENTS, READONLY, DEBUGGING

Disassembly of section .text:

00000000 <__vectors>:
   0:	0c 94 2a 00 	jmp	0x54	; 0x54 <__ctors_end>
   4:	0c 94 47 00 	jmp	0x8e	; 0x8e <__bad_interrupt>
   8:	0c 94 47 00 	jmp	0x8e	; 0x8e <__bad_interrupt>
   c:	0c 94 47 00 	jmp	0x8e	; 0x8e <__bad_interrupt>
  10:	0c 94 47 00 	jmp	0x8e	; 0x8e <__bad_interrupt>
  14:	0c 94 47 00 	jmp	0x8e	; 0x8e <__bad_interrupt>
  18:	0c 94 47 00 	jmp	0x8e	; 0x8e <__bad_interrupt>
  1c:	0c 94 47 00 	jmp	0x8e	; 0x8e <__bad_interrupt>
  20:	0c 94 47 00 	jmp	0x8e	; 0x8e <__bad_interrupt>
  24:	0c 94 47 00 	jmp	0x8e	; 0x8e <__bad_interrupt>
  28:	0c 94 47 00 	jmp	0x8e	; 0x8e <__bad_interrupt>
  2c:	0c 94 44 03 	jmp	0x688	; 0x688 <__vector_11>
  30:	0c 94 47 00 	jmp	0x8e	; 0x8e <__bad_interrupt>
  34:	0c 94 47 00 	jmp	0x8e	; 0x8e <__bad_interrupt>
  38:	0c 94 47 00 	jmp	0x8e	; 0x8e <__bad_interrupt>
  3c:	0c 94 47 00 	jmp	0x8e	; 0x8e <__bad_interrupt>
  40:	0c 94 47 00 	jmp	0x8e	; 0x8e <__bad_interrupt>
  44:	0c 94 47 00 	jmp	0x8e	; 0x8e <__bad_interrupt>
  48:	0c 94 47 00 	jmp	0x8e	; 0x8e <__bad_interrupt>
  4c:	0c 94 47 00 	jmp	0x8e	; 0x8e <__bad_interrupt>
  50:	0c 94 47 00 	jmp	0x8e	; 0x8e <__bad_interrupt>

00000054 <__ctors_end>:
  54:	11 24       	eor	r1, r1
  56:	1f be       	out	0x3f, r1	; 63
  58:	cf e5       	ldi	r28, 0x5F	; 95
  5a:	d8 e0       	ldi	r29, 0x08	; 8
  5c:	de bf       	out	0x3e, r29	; 62
  5e:	cd bf       	out	0x3d, r28	; 61

00000060 <__do_copy_data>:
  60:	10 e0       	ldi	r17, 0x00	; 0
  62:	a0 e6       	ldi	r26, 0x60	; 96
  64:	b0 e0       	ldi	r27, 0x00	; 0
  66:	e6 e4       	ldi	r30, 0x46	; 70
  68:	fd e0       	ldi	r31, 0x0D	; 13
  6a:	02 c0       	rjmp	.+4      	; 0x70 <__do_copy_data+0x10>
  6c:	05 90       	lpm	r0, Z+
  6e:	0d 92       	st	X+, r0
  70:	ac 37       	cpi	r26, 0x7C	; 124
  72:	b1 07       	cpc	r27, r17
  74:	d9 f7       	brne	.-10     	; 0x6c <__do_copy_data+0xc>

00000076 <__do_clear_bss>:
  76:	20 e0       	ldi	r18, 0x00	; 0
  78:	ac e7       	ldi	r26, 0x7C	; 124
  7a:	b0 e0       	ldi	r27, 0x00	; 0
  7c:	01 c0       	rjmp	.+2      	; 0x80 <.do_clear_bss_start>

0000007e <.do_clear_bss_loop>:
  7e:	1d 92       	st	X+, r1

00000080 <.do_clear_bss_start>:
  80:	aa 38       	cpi	r26, 0x8A	; 138
  82:	b2 07       	cpc	r27, r18
  84:	e1 f7       	brne	.-8      	; 0x7e <.do_clear_bss_loop>
  86:	0e 94 d8 02 	call	0x5b0	; 0x5b0 <main>
  8a:	0c 94 a1 06 	jmp	0xd42	; 0xd42 <_exit>

0000008e <__bad_interrupt>:
  8e:	0c 94 00 00 	jmp	0	; 0x0 <__vectors>

00000092 <TWI_Init>:
	#ifdef LCD8BIT
		Write8Bit(0x02);
		wait_LCD();
	#else
		Write2Nib(0x02);
		wait_LCD();
  92:	11 b8       	out	0x01, r1	; 1
  94:	80 e2       	ldi	r24, 0x20	; 32
  96:	80 b9       	out	0x00, r24	; 0
  98:	84 e8       	ldi	r24, 0x84	; 132
  9a:	86 bf       	out	0x36, r24	; 54
  9c:	08 95       	ret

0000009e <TWI_DS1307_wadr>:
  9e:	94 ea       	ldi	r25, 0xA4	; 164
  a0:	96 bf       	out	0x36, r25	; 54
  a2:	06 b6       	in	r0, 0x36	; 54
  a4:	07 fe       	sbrs	r0, 7
  a6:	fd cf       	rjmp	.-6      	; 0xa2 <TWI_DS1307_wadr+0x4>
  a8:	91 b1       	in	r25, 0x01	; 1
  aa:	98 7f       	andi	r25, 0xF8	; 248
  ac:	98 30       	cpi	r25, 0x08	; 8
  ae:	11 f0       	breq	.+4      	; 0xb4 <TWI_DS1307_wadr+0x16>
  b0:	81 b1       	in	r24, 0x01	; 1
  b2:	08 95       	ret
  b4:	90 ed       	ldi	r25, 0xD0	; 208
  b6:	93 b9       	out	0x03, r25	; 3
  b8:	94 e8       	ldi	r25, 0x84	; 132
  ba:	96 bf       	out	0x36, r25	; 54
  bc:	06 b6       	in	r0, 0x36	; 54
  be:	07 fe       	sbrs	r0, 7
  c0:	fd cf       	rjmp	.-6      	; 0xbc <TWI_DS1307_wadr+0x1e>
  c2:	91 b1       	in	r25, 0x01	; 1
  c4:	98 7f       	andi	r25, 0xF8	; 248
  c6:	98 31       	cpi	r25, 0x18	; 24
  c8:	11 f0       	breq	.+4      	; 0xce <TWI_DS1307_wadr+0x30>
  ca:	81 b1       	in	r24, 0x01	; 1
  cc:	08 95       	ret
  ce:	83 b9       	out	0x03, r24	; 3
  d0:	84 e8       	ldi	r24, 0x84	; 132
  d2:	86 bf       	out	0x36, r24	; 54
  d4:	06 b6       	in	r0, 0x36	; 54
  d6:	07 fe       	sbrs	r0, 7
  d8:	fd cf       	rjmp	.-6      	; 0xd4 <TWI_DS1307_wadr+0x36>
  da:	81 b1       	in	r24, 0x01	; 1
  dc:	88 7f       	andi	r24, 0xF8	; 248
  de:	88 32       	cpi	r24, 0x28	; 40
  e0:	11 f0       	breq	.+4      	; 0xe6 <TWI_DS1307_wadr+0x48>
  e2:	81 b1       	in	r24, 0x01	; 1
  e4:	08 95       	ret
  e6:	84 e9       	ldi	r24, 0x94	; 148
  e8:	86 bf       	out	0x36, r24	; 54
  ea:	80 e0       	ldi	r24, 0x00	; 0
  ec:	08 95       	ret

000000ee <TWI_DS1307_wblock>:
  ee:	94 ea       	ldi	r25, 0xA4	; 164
  f0:	96 bf       	out	0x36, r25	; 54
  f2:	06 b6       	in	r0, 0x36	; 54
  f4:	07 fe       	sbrs	r0, 7
  f6:	fd cf       	rjmp	.-6      	; 0xf2 <TWI_DS1307_wblock+0x4>
  f8:	91 b1       	in	r25, 0x01	; 1
  fa:	98 7f       	andi	r25, 0xF8	; 248
  fc:	98 30       	cpi	r25, 0x08	; 8
  fe:	11 f0       	breq	.+4      	; 0x104 <TWI_DS1307_wblock+0x16>
 100:	81 b1       	in	r24, 0x01	; 1
 102:	08 95       	ret
 104:	90 ed       	ldi	r25, 0xD0	; 208
 106:	93 b9       	out	0x03, r25	; 3
 108:	94 e8       	ldi	r25, 0x84	; 132
 10a:	96 bf       	out	0x36, r25	; 54
 10c:	06 b6       	in	r0, 0x36	; 54
 10e:	07 fe       	sbrs	r0, 7
 110:	fd cf       	rjmp	.-6      	; 0x10c <TWI_DS1307_wblock+0x1e>
 112:	91 b1       	in	r25, 0x01	; 1
 114:	98 7f       	andi	r25, 0xF8	; 248
 116:	98 31       	cpi	r25, 0x18	; 24
 118:	11 f0       	breq	.+4      	; 0x11e <TWI_DS1307_wblock+0x30>
 11a:	81 b1       	in	r24, 0x01	; 1
 11c:	08 95       	ret
 11e:	83 b9       	out	0x03, r24	; 3
 120:	84 e8       	ldi	r24, 0x84	; 132
 122:	86 bf       	out	0x36, r24	; 54
 124:	06 b6       	in	r0, 0x36	; 54
 126:	07 fe       	sbrs	r0, 7
 128:	fd cf       	rjmp	.-6      	; 0x124 <TWI_DS1307_wblock+0x36>
 12a:	81 b1       	in	r24, 0x01	; 1
 12c:	88 7f       	andi	r24, 0xF8	; 248
 12e:	88 32       	cpi	r24, 0x28	; 40
 130:	a1 f0       	breq	.+40     	; 0x15a <TWI_DS1307_wblock+0x6c>
 132:	81 b1       	in	r24, 0x01	; 1
 134:	08 95       	ret
 136:	fb 01       	movw	r30, r22
 138:	e8 0f       	add	r30, r24
 13a:	f1 1d       	adc	r31, r1
 13c:	90 81       	ld	r25, Z
 13e:	93 b9       	out	0x03, r25	; 3
 140:	94 e8       	ldi	r25, 0x84	; 132
 142:	96 bf       	out	0x36, r25	; 54
 144:	06 b6       	in	r0, 0x36	; 54
 146:	07 fe       	sbrs	r0, 7
 148:	fd cf       	rjmp	.-6      	; 0x144 <TWI_DS1307_wblock+0x56>
 14a:	91 b1       	in	r25, 0x01	; 1
 14c:	98 7f       	andi	r25, 0xF8	; 248
 14e:	98 32       	cpi	r25, 0x28	; 40
 150:	11 f0       	breq	.+4      	; 0x156 <TWI_DS1307_wblock+0x68>
 152:	81 b1       	in	r24, 0x01	; 1
 154:	08 95       	ret
 156:	8f 5f       	subi	r24, 0xFF	; 255
 158:	01 c0       	rjmp	.+2      	; 0x15c <TWI_DS1307_wblock+0x6e>
 15a:	80 e0       	ldi	r24, 0x00	; 0
 15c:	84 17       	cp	r24, r20
 15e:	58 f3       	brcs	.-42     	; 0x136 <TWI_DS1307_wblock+0x48>
 160:	84 e9       	ldi	r24, 0x94	; 148
 162:	86 bf       	out	0x36, r24	; 54
 164:	80 e0       	ldi	r24, 0x00	; 0
 166:	08 95       	ret

00000168 <TWI_DS1307_rblock>:
 168:	dc 01       	movw	r26, r24
 16a:	84 ea       	ldi	r24, 0xA4	; 164
 16c:	86 bf       	out	0x36, r24	; 54
 16e:	06 b6       	in	r0, 0x36	; 54
 170:	07 fe       	sbrs	r0, 7
 172:	fd cf       	rjmp	.-6      	; 0x16e <TWI_DS1307_rblock+0x6>
 174:	81 b1       	in	r24, 0x01	; 1
 176:	88 7f       	andi	r24, 0xF8	; 248
 178:	88 30       	cpi	r24, 0x08	; 8
 17a:	c9 f7       	brne	.-14     	; 0x16e <TWI_DS1307_rblock+0x6>
 17c:	81 ed       	ldi	r24, 0xD1	; 209
 17e:	83 b9       	out	0x03, r24	; 3
 180:	84 e8       	ldi	r24, 0x84	; 132
 182:	86 bf       	out	0x36, r24	; 54
 184:	06 b6       	in	r0, 0x36	; 54
 186:	07 fe       	sbrs	r0, 7
 188:	fd cf       	rjmp	.-6      	; 0x184 <TWI_DS1307_rblock+0x1c>
 18a:	91 b1       	in	r25, 0x01	; 1
 18c:	98 7f       	andi	r25, 0xF8	; 248
 18e:	90 34       	cpi	r25, 0x40	; 64
 190:	c9 f7       	brne	.-14     	; 0x184 <TWI_DS1307_rblock+0x1c>
 192:	20 e0       	ldi	r18, 0x00	; 0
 194:	0f c0       	rjmp	.+30     	; 0x1b4 <TWI_DS1307_rblock+0x4c>
 196:	84 ec       	ldi	r24, 0xC4	; 196
 198:	86 bf       	out	0x36, r24	; 54
 19a:	06 b6       	in	r0, 0x36	; 54
 19c:	07 fe       	sbrs	r0, 7
 19e:	fd cf       	rjmp	.-6      	; 0x19a <TWI_DS1307_rblock+0x32>
 1a0:	91 b1       	in	r25, 0x01	; 1
 1a2:	98 7f       	andi	r25, 0xF8	; 248
 1a4:	90 35       	cpi	r25, 0x50	; 80
 1a6:	c9 f7       	brne	.-14     	; 0x19a <TWI_DS1307_rblock+0x32>
 1a8:	fd 01       	movw	r30, r26
 1aa:	e2 0f       	add	r30, r18
 1ac:	f1 1d       	adc	r31, r1
 1ae:	83 b1       	in	r24, 0x03	; 3
 1b0:	80 83       	st	Z, r24
 1b2:	2f 5f       	subi	r18, 0xFF	; 255
 1b4:	e2 2f       	mov	r30, r18
 1b6:	f0 e0       	ldi	r31, 0x00	; 0
 1b8:	46 2f       	mov	r20, r22
 1ba:	50 e0       	ldi	r21, 0x00	; 0
 1bc:	41 50       	subi	r20, 0x01	; 1
 1be:	51 09       	sbc	r21, r1
 1c0:	e4 17       	cp	r30, r20
 1c2:	f5 07       	cpc	r31, r21
 1c4:	44 f3       	brlt	.-48     	; 0x196 <TWI_DS1307_rblock+0x2e>
 1c6:	84 e8       	ldi	r24, 0x84	; 132
 1c8:	86 bf       	out	0x36, r24	; 54
 1ca:	06 b6       	in	r0, 0x36	; 54
 1cc:	07 fe       	sbrs	r0, 7
 1ce:	fd cf       	rjmp	.-6      	; 0x1ca <TWI_DS1307_rblock+0x62>
 1d0:	91 b1       	in	r25, 0x01	; 1
 1d2:	98 7f       	andi	r25, 0xF8	; 248
 1d4:	98 35       	cpi	r25, 0x58	; 88
 1d6:	c9 f7       	brne	.-14     	; 0x1ca <TWI_DS1307_rblock+0x62>
 1d8:	86 2f       	mov	r24, r22
 1da:	90 e0       	ldi	r25, 0x00	; 0
 1dc:	01 97       	sbiw	r24, 0x01	; 1
 1de:	a8 0f       	add	r26, r24
 1e0:	b9 1f       	adc	r27, r25
 1e2:	83 b1       	in	r24, 0x03	; 3
 1e4:	8c 93       	st	X, r24
 1e6:	84 e9       	ldi	r24, 0x94	; 148
 1e8:	86 bf       	out	0x36, r24	; 54
 1ea:	80 e0       	ldi	r24, 0x00	; 0
 1ec:	08 95       	ret

000001ee <Read2Nib>:
 1ee:	8b b3       	in	r24, 0x1b	; 27
 1f0:	80 6f       	ori	r24, 0xF0	; 240
 1f2:	8b bb       	out	0x1b, r24	; 27
 1f4:	8a b3       	in	r24, 0x1a	; 26
 1f6:	8f 70       	andi	r24, 0x0F	; 15
 1f8:	8a bb       	out	0x1a, r24	; 26
 1fa:	8b b3       	in	r24, 0x1b	; 27
 1fc:	84 60       	ori	r24, 0x04	; 4
 1fe:	8b bb       	out	0x1b, r24	; 27
 200:	8b b3       	in	r24, 0x1b	; 27
 202:	84 60       	ori	r24, 0x04	; 4
 204:	8b bb       	out	0x1b, r24	; 27
 206:	99 b3       	in	r25, 0x19	; 25
 208:	90 7f       	andi	r25, 0xF0	; 240
 20a:	8b b3       	in	r24, 0x1b	; 27
 20c:	8b 7f       	andi	r24, 0xFB	; 251
 20e:	8b bb       	out	0x1b, r24	; 27
 210:	8b b3       	in	r24, 0x1b	; 27
 212:	84 60       	ori	r24, 0x04	; 4
 214:	8b bb       	out	0x1b, r24	; 27
 216:	8b b3       	in	r24, 0x1b	; 27
 218:	84 60       	ori	r24, 0x04	; 4
 21a:	8b bb       	out	0x1b, r24	; 27
 21c:	89 b3       	in	r24, 0x19	; 25
 21e:	2b b3       	in	r18, 0x1b	; 27
 220:	2b 7f       	andi	r18, 0xFB	; 251
 222:	2b bb       	out	0x1b, r18	; 27
 224:	82 95       	swap	r24
 226:	8f 70       	andi	r24, 0x0F	; 15
 228:	89 2b       	or	r24, r25
 22a:	08 95       	ret

0000022c <Write2Nib>:
 22c:	2b b3       	in	r18, 0x1b	; 27
 22e:	2f 70       	andi	r18, 0x0F	; 15
 230:	38 2f       	mov	r19, r24
 232:	30 7f       	andi	r19, 0xF0	; 240
 234:	40 e1       	ldi	r20, 0x10	; 16
 236:	84 9f       	mul	r24, r20
 238:	c0 01       	movw	r24, r0
 23a:	11 24       	eor	r1, r1
 23c:	92 2f       	mov	r25, r18
 23e:	93 2b       	or	r25, r19
 240:	9b bb       	out	0x1b, r25	; 27
 242:	9b b3       	in	r25, 0x1b	; 27
 244:	94 60       	ori	r25, 0x04	; 4
 246:	9b bb       	out	0x1b, r25	; 27
 248:	9b b3       	in	r25, 0x1b	; 27
 24a:	9b 7f       	andi	r25, 0xFB	; 251
 24c:	9b bb       	out	0x1b, r25	; 27
 24e:	82 2b       	or	r24, r18
 250:	8b bb       	out	0x1b, r24	; 27
 252:	8b b3       	in	r24, 0x1b	; 27
 254:	84 60       	ori	r24, 0x04	; 4
 256:	8b bb       	out	0x1b, r24	; 27
 258:	8b b3       	in	r24, 0x1b	; 27
 25a:	8b 7f       	andi	r24, 0xFB	; 251
 25c:	8b bb       	out	0x1b, r24	; 27
 25e:	08 95       	ret

00000260 <wait_LCD>:
 260:	cf 93       	push	r28
 262:	df 93       	push	r29
 264:	1f 92       	push	r1
 266:	cd b7       	in	r28, 0x3d	; 61
 268:	de b7       	in	r29, 0x3e	; 62
 26a:	8b b3       	in	r24, 0x1b	; 27
 26c:	8e 7f       	andi	r24, 0xFE	; 254
 26e:	8b bb       	out	0x1b, r24	; 27
 270:	8b b3       	in	r24, 0x1b	; 27
 272:	82 60       	ori	r24, 0x02	; 2
 274:	8b bb       	out	0x1b, r24	; 27
 276:	0e 94 f7 00 	call	0x1ee	; 0x1ee <Read2Nib>
 27a:	89 83       	std	Y+1, r24	; 0x01
 27c:	89 81       	ldd	r24, Y+1	; 0x01
 27e:	88 23       	and	r24, r24
 280:	a4 f3       	brlt	.-24     	; 0x26a <wait_LCD+0xa>
 282:	8b b3       	in	r24, 0x1b	; 27
 284:	8d 7f       	andi	r24, 0xFD	; 253
 286:	8b bb       	out	0x1b, r24	; 27
 288:	8f ef       	ldi	r24, 0xFF	; 255
 28a:	8a bb       	out	0x1a, r24	; 26
 28c:	0f 90       	pop	r0
 28e:	df 91       	pop	r29
 290:	cf 91       	pop	r28
 292:	08 95       	ret

00000294 <init_LCD>:
 294:	8f ef       	ldi	r24, 0xFF	; 255
 296:	8a bb       	out	0x1a, r24	; 26
 298:	8a bb       	out	0x1a, r24	; 26
 29a:	8b b3       	in	r24, 0x1b	; 27
 29c:	8e 7f       	andi	r24, 0xFE	; 254
 29e:	8b bb       	out	0x1b, r24	; 27
 2a0:	8b b3       	in	r24, 0x1b	; 27
 2a2:	8d 7f       	andi	r24, 0xFD	; 253
 2a4:	8b bb       	out	0x1b, r24	; 27
 2a6:	8b b3       	in	r24, 0x1b	; 27
 2a8:	8b 7f       	andi	r24, 0xFB	; 251
 2aa:	8b bb       	out	0x1b, r24	; 27
 2ac:	8b b3       	in	r24, 0x1b	; 27
 2ae:	84 60       	ori	r24, 0x04	; 4
 2b0:	8b bb       	out	0x1b, r24	; 27
 2b2:	8b b3       	in	r24, 0x1b	; 27
 2b4:	80 62       	ori	r24, 0x20	; 32
 2b6:	8b bb       	out	0x1b, r24	; 27
 2b8:	8b b3       	in	r24, 0x1b	; 27
 2ba:	8b 7f       	andi	r24, 0xFB	; 251
 2bc:	8b bb       	out	0x1b, r24	; 27
 2be:	0e 94 30 01 	call	0x260	; 0x260 <wait_LCD>
 2c2:	88 e2       	ldi	r24, 0x28	; 40
 2c4:	0e 94 16 01 	call	0x22c	; 0x22c <Write2Nib>
 2c8:	0e 94 30 01 	call	0x260	; 0x260 <wait_LCD>
 2cc:	8b b3       	in	r24, 0x1b	; 27
 2ce:	8e 7f       	andi	r24, 0xFE	; 254
 2d0:	8b bb       	out	0x1b, r24	; 27
 2d2:	8e e0       	ldi	r24, 0x0E	; 14
 2d4:	0e 94 16 01 	call	0x22c	; 0x22c <Write2Nib>
 2d8:	0e 94 30 01 	call	0x260	; 0x260 <wait_LCD>
 2dc:	8b b3       	in	r24, 0x1b	; 27
 2de:	8e 7f       	andi	r24, 0xFE	; 254
 2e0:	8b bb       	out	0x1b, r24	; 27
 2e2:	86 e0       	ldi	r24, 0x06	; 6
 2e4:	0e 94 16 01 	call	0x22c	; 0x22c <Write2Nib>
 2e8:	0e 94 30 01 	call	0x260	; 0x260 <wait_LCD>
 2ec:	08 95       	ret

000002ee <move_LCD>:
	#endif
}
void move_LCD(uint8_t y,uint8_t x){
	uint8_t Ad;
	Ad=64*(y-1)+(x-1)+0x80; //
 2ee:	28 2f       	mov	r18, r24
 2f0:	30 e0       	ldi	r19, 0x00	; 0
 2f2:	21 50       	subi	r18, 0x01	; 1
 2f4:	31 09       	sbc	r19, r1
 2f6:	86 2f       	mov	r24, r22
 2f8:	90 e4       	ldi	r25, 0x40	; 64
 2fa:	29 9f       	mul	r18, r25
 2fc:	80 0d       	add	r24, r0
 2fe:	11 24       	eor	r1, r1
	cbi(CTRL,RS); // the following data is COMMAND
 300:	9b b3       	in	r25, 0x1b	; 27
 302:	9e 7f       	andi	r25, 0xFE	; 254
 304:	9b bb       	out	0x1b, r25	; 27
	#ifdef LCD8BIT
		Write8Bit(Ad);
		wait_LCD();
	#else
		Write2Nib(Ad);
 306:	81 58       	subi	r24, 0x81	; 129
 308:	0e 94 16 01 	call	0x22c	; 0x22c <Write2Nib>
		wait_LCD();
 30c:	0e 94 30 01 	call	0x260	; 0x260 <wait_LCD>
 310:	08 95       	ret

00000312 <clr_LCD>:
	#endif
}

void clr_LCD(){
	cbi(CTRL,RS); //RS=0 mean the following data is COMMAND (not normal DATA)
 312:	8b b3       	in	r24, 0x1b	; 27
 314:	8e 7f       	andi	r24, 0xFE	; 254
 316:	8b bb       	out	0x1b, r24	; 27
	#ifdef LCD8BIT
		Write8Bit(0x01);
		wait_LCD();
	#else
		Write2Nib(0x01);
 318:	81 e0       	ldi	r24, 0x01	; 1
 31a:	0e 94 16 01 	call	0x22c	; 0x22c <Write2Nib>
		wait_LCD();
 31e:	0e 94 30 01 	call	0x260	; 0x260 <wait_LCD>
 322:	08 95       	ret

00000324 <putChar_LCD>:

	#endif
}

void putChar_LCD(uint8_t chr){
	sbi(CTRL,RS); //this is a normal DATA
 324:	9b b3       	in	r25, 0x1b	; 27
 326:	91 60       	ori	r25, 0x01	; 1
 328:	9b bb       	out	0x1b, r25	; 27
	#ifdef LCD8BIT
		Write8Bit(chr);
		wait_LCD();
	#else
		Write2Nib(chr);
 32a:	0e 94 16 01 	call	0x22c	; 0x22c <Write2Nib>
		wait_LCD();
 32e:	0e 94 30 01 	call	0x260	; 0x260 <wait_LCD>
 332:	08 95       	ret

00000334 <print_LCD>:
	#endif
}

void print_LCD(char* str){
 334:	0f 93       	push	r16
 336:	1f 93       	push	r17
 338:	cf 93       	push	r28
 33a:	8c 01       	movw	r16, r24
	 unsigned char i;
	 for (i=0; str[i]!=0; i++) putChar_LCD(str[i]);
 33c:	c0 e0       	ldi	r28, 0x00	; 0
 33e:	03 c0       	rjmp	.+6      	; 0x346 <print_LCD+0x12>
 340:	0e 94 92 01 	call	0x324	; 0x324 <putChar_LCD>
 344:	cf 5f       	subi	r28, 0xFF	; 255
 346:	f8 01       	movw	r30, r16
 348:	ec 0f       	add	r30, r28
 34a:	f1 1d       	adc	r31, r1
 34c:	80 81       	ld	r24, Z
 34e:	81 11       	cpse	r24, r1
 350:	f7 cf       	rjmp	.-18     	; 0x340 <print_LCD+0xc>
}
 352:	cf 91       	pop	r28
 354:	1f 91       	pop	r17
 356:	0f 91       	pop	r16
 358:	08 95       	ret

0000035a <BCD2Dec>:
??i BCD sang th?p phân
*/
uint8_t BCD2Dec(uint8_t BCD)
{
	uint8_t L, H;
	L=BCD & 0x0F;
 35a:	38 2f       	mov	r19, r24
 35c:	3f 70       	andi	r19, 0x0F	; 15
	H=(BCD>>4)*10;
 35e:	98 2f       	mov	r25, r24
 360:	92 95       	swap	r25
 362:	9f 70       	andi	r25, 0x0F	; 15
 364:	99 0f       	add	r25, r25
 366:	29 2f       	mov	r18, r25
 368:	22 0f       	add	r18, r18
 36a:	22 0f       	add	r18, r18
 36c:	89 2f       	mov	r24, r25
 36e:	82 0f       	add	r24, r18
	return (H+L); 
}
 370:	83 0f       	add	r24, r19
 372:	08 95       	ret

00000374 <Dec2BCD>:
uint8_t Dec2BCD(uint8_t Dec)
{
	uint8_t L, H;
	L=Dec % 10;
 374:	2d ec       	ldi	r18, 0xCD	; 205
 376:	82 9f       	mul	r24, r18
 378:	21 2d       	mov	r18, r1
 37a:	11 24       	eor	r1, r1
 37c:	92 2f       	mov	r25, r18
 37e:	96 95       	lsr	r25
 380:	96 95       	lsr	r25
 382:	96 95       	lsr	r25
 384:	99 0f       	add	r25, r25
 386:	39 2f       	mov	r19, r25
 388:	33 0f       	add	r19, r19
 38a:	33 0f       	add	r19, r19
 38c:	93 0f       	add	r25, r19
 38e:	89 1b       	sub	r24, r25
	H=(Dec/10)<<4;
 390:	26 95       	lsr	r18
 392:	26 95       	lsr	r18
 394:	26 95       	lsr	r18
	return (H+L);
}
 396:	30 e1       	ldi	r19, 0x10	; 16
 398:	23 9f       	mul	r18, r19
 39a:	80 0d       	add	r24, r0
 39c:	11 24       	eor	r1, r1
 39e:	08 95       	ret

000003a0 <Display>:
/*
Display on LCD
*/
void Display(void){ //chuong trinh con  hien thi thoi gian doc tu DS1307
 3a0:	0f 93       	push	r16
 3a2:	1f 93       	push	r17
 3a4:	cf 93       	push	r28
 3a6:	df 93       	push	r29
	Second 	= BCD2Dec(tData[0] & 0x7F);
 3a8:	ce e7       	ldi	r28, 0x7E	; 126
 3aa:	d0 e0       	ldi	r29, 0x00	; 0
 3ac:	88 81       	ld	r24, Y
 3ae:	8f 77       	andi	r24, 0x7F	; 127
 3b0:	0e 94 ad 01 	call	0x35a	; 0x35a <BCD2Dec>
 3b4:	80 93 7d 00 	sts	0x007D, r24	; 0x80007d <Second>
	Minute 	= BCD2Dec(tData[1]);
 3b8:	89 81       	ldd	r24, Y+1	; 0x01
 3ba:	0e 94 ad 01 	call	0x35a	; 0x35a <BCD2Dec>
 3be:	80 93 67 00 	sts	0x0067, r24	; 0x800067 <Minute>
	
	if (Mode !=0) 	Hour = BCD2Dec(tData[2] & 0x1F); //mode 12h
 3c2:	80 91 61 00 	lds	r24, 0x0061	; 0x800061 <Mode>
 3c6:	88 23       	and	r24, r24
 3c8:	41 f0       	breq	.+16     	; 0x3da <Display+0x3a>
 3ca:	80 91 80 00 	lds	r24, 0x0080	; 0x800080 <tData+0x2>
 3ce:	8f 71       	andi	r24, 0x1F	; 31
 3d0:	0e 94 ad 01 	call	0x35a	; 0x35a <BCD2Dec>
 3d4:	80 93 66 00 	sts	0x0066, r24	; 0x800066 <Hour>
 3d8:	07 c0       	rjmp	.+14     	; 0x3e8 <Display+0x48>
	else 		  	Hour = BCD2Dec(tData[2] & 0x3F); //mode 24h
 3da:	80 91 80 00 	lds	r24, 0x0080	; 0x800080 <tData+0x2>
 3de:	8f 73       	andi	r24, 0x3F	; 63
 3e0:	0e 94 ad 01 	call	0x35a	; 0x35a <BCD2Dec>
 3e4:	80 93 66 00 	sts	0x0066, r24	; 0x800066 <Hour>
	
	Date   	= BCD2Dec(tData[4]);
 3e8:	ce e7       	ldi	r28, 0x7E	; 126
 3ea:	d0 e0       	ldi	r29, 0x00	; 0
 3ec:	8c 81       	ldd	r24, Y+4	; 0x04
 3ee:	0e 94 ad 01 	call	0x35a	; 0x35a <BCD2Dec>
 3f2:	80 93 64 00 	sts	0x0064, r24	; 0x800064 <Date>
	Month	= BCD2Dec(tData[5]);
 3f6:	8d 81       	ldd	r24, Y+5	; 0x05
 3f8:	0e 94 ad 01 	call	0x35a	; 0x35a <BCD2Dec>
 3fc:	80 93 63 00 	sts	0x0063, r24	; 0x800063 <Month>
	Year	= BCD2Dec(tData[6]);
 400:	8e 81       	ldd	r24, Y+6	; 0x06
 402:	0e 94 ad 01 	call	0x35a	; 0x35a <BCD2Dec>
 406:	80 93 62 00 	sts	0x0062, r24	; 0x800062 <Year>
	
	clr_LCD();		//xoa LCD
 40a:	0e 94 89 01 	call	0x312	; 0x312 <clr_LCD>
	//in gio:phut:giay
	print_LCD("Time: ");
 40e:	88 e6       	ldi	r24, 0x68	; 104
 410:	90 e0       	ldi	r25, 0x00	; 0
 412:	0e 94 9a 01 	call	0x334	; 0x334 <print_LCD>
	sprintf(dis, "%i",Hour);
 416:	80 91 66 00 	lds	r24, 0x0066	; 0x800066 <Hour>
 41a:	1f 92       	push	r1
 41c:	8f 93       	push	r24
 41e:	0f e6       	ldi	r16, 0x6F	; 111
 420:	10 e0       	ldi	r17, 0x00	; 0
 422:	1f 93       	push	r17
 424:	0f 93       	push	r16
 426:	c5 e8       	ldi	r28, 0x85	; 133
 428:	d0 e0       	ldi	r29, 0x00	; 0
 42a:	df 93       	push	r29
 42c:	cf 93       	push	r28
 42e:	0e 94 b7 03 	call	0x76e	; 0x76e <sprintf>
	move_LCD(1,7);  print_LCD(dis); move_LCD(1,9); putChar_LCD(':');
 432:	67 e0       	ldi	r22, 0x07	; 7
 434:	81 e0       	ldi	r24, 0x01	; 1
 436:	0e 94 77 01 	call	0x2ee	; 0x2ee <move_LCD>
 43a:	ce 01       	movw	r24, r28
 43c:	0e 94 9a 01 	call	0x334	; 0x334 <print_LCD>
 440:	69 e0       	ldi	r22, 0x09	; 9
 442:	81 e0       	ldi	r24, 0x01	; 1
 444:	0e 94 77 01 	call	0x2ee	; 0x2ee <move_LCD>
 448:	8a e3       	ldi	r24, 0x3A	; 58
 44a:	0e 94 92 01 	call	0x324	; 0x324 <putChar_LCD>
	sprintf(dis, "%i",Minute);
 44e:	80 91 67 00 	lds	r24, 0x0067	; 0x800067 <Minute>
 452:	1f 92       	push	r1
 454:	8f 93       	push	r24
 456:	1f 93       	push	r17
 458:	0f 93       	push	r16
 45a:	df 93       	push	r29
 45c:	cf 93       	push	r28
 45e:	0e 94 b7 03 	call	0x76e	; 0x76e <sprintf>
	move_LCD(1,10); print_LCD(dis); move_LCD(1,12);putChar_LCD(':');
 462:	6a e0       	ldi	r22, 0x0A	; 10
 464:	81 e0       	ldi	r24, 0x01	; 1
 466:	0e 94 77 01 	call	0x2ee	; 0x2ee <move_LCD>
 46a:	ce 01       	movw	r24, r28
 46c:	0e 94 9a 01 	call	0x334	; 0x334 <print_LCD>
 470:	6c e0       	ldi	r22, 0x0C	; 12
 472:	81 e0       	ldi	r24, 0x01	; 1
 474:	0e 94 77 01 	call	0x2ee	; 0x2ee <move_LCD>
 478:	8a e3       	ldi	r24, 0x3A	; 58
 47a:	0e 94 92 01 	call	0x324	; 0x324 <putChar_LCD>
	sprintf(dis, "%i",Second);
 47e:	80 91 7d 00 	lds	r24, 0x007D	; 0x80007d <Second>
 482:	1f 92       	push	r1
 484:	8f 93       	push	r24
 486:	1f 93       	push	r17
 488:	0f 93       	push	r16
 48a:	df 93       	push	r29
 48c:	cf 93       	push	r28
 48e:	0e 94 b7 03 	call	0x76e	; 0x76e <sprintf>
	move_LCD(1,13); print_LCD(dis);
 492:	6d e0       	ldi	r22, 0x0D	; 13
 494:	81 e0       	ldi	r24, 0x01	; 1
 496:	0e 94 77 01 	call	0x2ee	; 0x2ee <move_LCD>
 49a:	ce 01       	movw	r24, r28
 49c:	0e 94 9a 01 	call	0x334	; 0x334 <print_LCD>
	if (Mode !=0){ //mode 12h
 4a0:	80 91 61 00 	lds	r24, 0x0061	; 0x800061 <Mode>
 4a4:	2d b7       	in	r18, 0x3d	; 61
 4a6:	3e b7       	in	r19, 0x3e	; 62
 4a8:	2e 5e       	subi	r18, 0xEE	; 238
 4aa:	3f 4f       	sbci	r19, 0xFF	; 255
 4ac:	0f b6       	in	r0, 0x3f	; 63
 4ae:	f8 94       	cli
 4b0:	3e bf       	out	0x3e, r19	; 62
 4b2:	0f be       	out	0x3f, r0	; 63
 4b4:	2d bf       	out	0x3d, r18	; 61
 4b6:	88 23       	and	r24, r24
 4b8:	79 f0       	breq	.+30     	; 0x4d8 <__EEPROM_REGION_LENGTH__+0xd8>
		move_LCD(1,16);
 4ba:	60 e1       	ldi	r22, 0x10	; 16
 4bc:	81 e0       	ldi	r24, 0x01	; 1
 4be:	0e 94 77 01 	call	0x2ee	; 0x2ee <move_LCD>
		if (bit_is_set(tData[2],5))  putChar_LCD('P'); //kiem tra bit AP, if AP=1
 4c2:	80 91 80 00 	lds	r24, 0x0080	; 0x800080 <tData+0x2>
 4c6:	85 ff       	sbrs	r24, 5
 4c8:	04 c0       	rjmp	.+8      	; 0x4d2 <__EEPROM_REGION_LENGTH__+0xd2>
 4ca:	80 e5       	ldi	r24, 0x50	; 80
 4cc:	0e 94 92 01 	call	0x324	; 0x324 <putChar_LCD>
 4d0:	03 c0       	rjmp	.+6      	; 0x4d8 <__EEPROM_REGION_LENGTH__+0xd8>
		else putChar_LCD('A');
 4d2:	81 e4       	ldi	r24, 0x41	; 65
 4d4:	0e 94 92 01 	call	0x324	; 0x324 <putChar_LCD>
	}
	//in nam-thang-ngay
	move_LCD(2,1);
 4d8:	61 e0       	ldi	r22, 0x01	; 1
 4da:	82 e0       	ldi	r24, 0x02	; 2
 4dc:	0e 94 77 01 	call	0x2ee	; 0x2ee <move_LCD>
	print_LCD("Date: ");
 4e0:	82 e7       	ldi	r24, 0x72	; 114
 4e2:	90 e0       	ldi	r25, 0x00	; 0
 4e4:	0e 94 9a 01 	call	0x334	; 0x334 <print_LCD>
	sprintf(dis, "%i",Year);
 4e8:	80 91 62 00 	lds	r24, 0x0062	; 0x800062 <Year>
 4ec:	1f 92       	push	r1
 4ee:	8f 93       	push	r24
 4f0:	8f e6       	ldi	r24, 0x6F	; 111
 4f2:	90 e0       	ldi	r25, 0x00	; 0
 4f4:	9f 93       	push	r25
 4f6:	8f 93       	push	r24
 4f8:	85 e8       	ldi	r24, 0x85	; 133
 4fa:	90 e0       	ldi	r25, 0x00	; 0
 4fc:	9f 93       	push	r25
 4fe:	8f 93       	push	r24
 500:	0e 94 b7 03 	call	0x76e	; 0x76e <sprintf>
	move_LCD(2,7);
 504:	67 e0       	ldi	r22, 0x07	; 7
 506:	82 e0       	ldi	r24, 0x02	; 2
 508:	0e 94 77 01 	call	0x2ee	; 0x2ee <move_LCD>
	if (Year<10) putChar_LCD('0'); // neu nam <10, in them so 0 ben trai, vi du 09
 50c:	80 91 62 00 	lds	r24, 0x0062	; 0x800062 <Year>
 510:	0f 90       	pop	r0
 512:	0f 90       	pop	r0
 514:	0f 90       	pop	r0
 516:	0f 90       	pop	r0
 518:	0f 90       	pop	r0
 51a:	0f 90       	pop	r0
 51c:	8a 30       	cpi	r24, 0x0A	; 10
 51e:	18 f4       	brcc	.+6      	; 0x526 <__EEPROM_REGION_LENGTH__+0x126>
 520:	80 e3       	ldi	r24, 0x30	; 48
 522:	0e 94 92 01 	call	0x324	; 0x324 <putChar_LCD>
	print_LCD(dis); move_LCD(2,9); putChar_LCD('-'); //in Nam
 526:	85 e8       	ldi	r24, 0x85	; 133
 528:	90 e0       	ldi	r25, 0x00	; 0
 52a:	0e 94 9a 01 	call	0x334	; 0x334 <print_LCD>
 52e:	69 e0       	ldi	r22, 0x09	; 9
 530:	82 e0       	ldi	r24, 0x02	; 2
 532:	0e 94 77 01 	call	0x2ee	; 0x2ee <move_LCD>
 536:	8d e2       	ldi	r24, 0x2D	; 45
 538:	0e 94 92 01 	call	0x324	; 0x324 <putChar_LCD>
	sprintf(dis, "%i",Month);
 53c:	80 91 63 00 	lds	r24, 0x0063	; 0x800063 <Month>
 540:	1f 92       	push	r1
 542:	8f 93       	push	r24
 544:	0f e6       	ldi	r16, 0x6F	; 111
 546:	10 e0       	ldi	r17, 0x00	; 0
 548:	1f 93       	push	r17
 54a:	0f 93       	push	r16
 54c:	c5 e8       	ldi	r28, 0x85	; 133
 54e:	d0 e0       	ldi	r29, 0x00	; 0
 550:	df 93       	push	r29
 552:	cf 93       	push	r28
 554:	0e 94 b7 03 	call	0x76e	; 0x76e <sprintf>
	move_LCD(2,10); print_LCD(dis); move_LCD(2,12);putChar_LCD('-'); //in thang
 558:	6a e0       	ldi	r22, 0x0A	; 10
 55a:	82 e0       	ldi	r24, 0x02	; 2
 55c:	0e 94 77 01 	call	0x2ee	; 0x2ee <move_LCD>
 560:	ce 01       	movw	r24, r28
 562:	0e 94 9a 01 	call	0x334	; 0x334 <print_LCD>
 566:	6c e0       	ldi	r22, 0x0C	; 12
 568:	82 e0       	ldi	r24, 0x02	; 2
 56a:	0e 94 77 01 	call	0x2ee	; 0x2ee <move_LCD>
 56e:	8d e2       	ldi	r24, 0x2D	; 45
 570:	0e 94 92 01 	call	0x324	; 0x324 <putChar_LCD>
	sprintf(dis, "%i",Date);
 574:	80 91 64 00 	lds	r24, 0x0064	; 0x800064 <Date>
 578:	1f 92       	push	r1
 57a:	8f 93       	push	r24
 57c:	1f 93       	push	r17
 57e:	0f 93       	push	r16
 580:	df 93       	push	r29
 582:	cf 93       	push	r28
 584:	0e 94 b7 03 	call	0x76e	; 0x76e <sprintf>
	move_LCD(2,13); print_LCD(dis);	//in Ngay
 588:	6d e0       	ldi	r22, 0x0D	; 13
 58a:	82 e0       	ldi	r24, 0x02	; 2
 58c:	0e 94 77 01 	call	0x2ee	; 0x2ee <move_LCD>
 590:	ce 01       	movw	r24, r28
 592:	0e 94 9a 01 	call	0x334	; 0x334 <print_LCD>
}
 596:	8d b7       	in	r24, 0x3d	; 61
 598:	9e b7       	in	r25, 0x3e	; 62
 59a:	0c 96       	adiw	r24, 0x0c	; 12
 59c:	0f b6       	in	r0, 0x3f	; 63
 59e:	f8 94       	cli
 5a0:	9e bf       	out	0x3e, r25	; 62
 5a2:	0f be       	out	0x3f, r0	; 63
 5a4:	8d bf       	out	0x3d, r24	; 61
 5a6:	df 91       	pop	r29
 5a8:	cf 91       	pop	r28
 5aa:	1f 91       	pop	r17
 5ac:	0f 91       	pop	r16
 5ae:	08 95       	ret

000005b0 <main>:

int main(void){	
	//khoi dong LCD-----------------------
	init_LCD();
 5b0:	0e 94 4a 01 	call	0x294	; 0x294 <init_LCD>
	clr_LCD();	
 5b4:	0e 94 89 01 	call	0x312	; 0x312 <clr_LCD>
	#else
		//round up by default
		__ticks_dc = (uint32_t)(ceil(fabs(__tmp)));
	#endif

	__builtin_avr_delay_cycles(__ticks_dc);
 5b8:	2f ef       	ldi	r18, 0xFF	; 255
 5ba:	8f e7       	ldi	r24, 0x7F	; 127
 5bc:	96 e1       	ldi	r25, 0x16	; 22
 5be:	21 50       	subi	r18, 0x01	; 1
 5c0:	80 40       	sbci	r24, 0x00	; 0
 5c2:	90 40       	sbci	r25, 0x00	; 0
 5c4:	e1 f7       	brne	.-8      	; 0x5be <main+0xe>
 5c6:	00 c0       	rjmp	.+0      	; 0x5c8 <main+0x18>
 5c8:	00 00       	nop
	_delay_ms(1000);
	//------------------------------------
	
	//khoi dong Timer0 lam bo dinh thi 1s------------------------------------------------
	TCCR0=(1<<CS02)|(0<<CS01)|(1<<CS00);	//CS02=1, CS01=0, CS00=1: chon Prescaler=1024 
 5ca:	85 e0       	ldi	r24, 0x05	; 5
 5cc:	83 bf       	out	0x33, r24	; 51
    TIMSK=(1<<TOIE0);						//cho phep ngat khi co tran o T/C0
 5ce:	81 e0       	ldi	r24, 0x01	; 1
 5d0:	89 bf       	out	0x39, r24	; 57
    sei();                      			//set bit I cho phep ngat toan cuc
 5d2:	78 94       	sei
	//----------------------------------------------------------------
	
	//khoi dong gia tri ghi vao DS1307---------------------------------------------------
	tData[0]=Dec2BCD(Second); 
 5d4:	80 91 7d 00 	lds	r24, 0x007D	; 0x80007d <Second>
 5d8:	0e 94 ba 01 	call	0x374	; 0x374 <Dec2BCD>
 5dc:	ce e7       	ldi	r28, 0x7E	; 126
 5de:	d0 e0       	ldi	r29, 0x00	; 0
 5e0:	88 83       	st	Y, r24
	tData[1]=Dec2BCD(Minute); 
 5e2:	80 91 67 00 	lds	r24, 0x0067	; 0x800067 <Minute>
 5e6:	0e 94 ba 01 	call	0x374	; 0x374 <Dec2BCD>
 5ea:	89 83       	std	Y+1, r24	; 0x01
	if (Mode!=0) tData[2]=Dec2BCD(Hour)|(Mode<<6)|(AP<<5); //mode 12h
 5ec:	80 91 61 00 	lds	r24, 0x0061	; 0x800061 <Mode>
 5f0:	88 23       	and	r24, r24
 5f2:	a9 f0       	breq	.+42     	; 0x61e <main+0x6e>
 5f4:	80 91 66 00 	lds	r24, 0x0066	; 0x800066 <Hour>
 5f8:	0e 94 ba 01 	call	0x374	; 0x374 <Dec2BCD>
 5fc:	40 91 61 00 	lds	r20, 0x0061	; 0x800061 <Mode>
 600:	20 e4       	ldi	r18, 0x40	; 64
 602:	42 9f       	mul	r20, r18
 604:	a0 01       	movw	r20, r0
 606:	11 24       	eor	r1, r1
 608:	20 91 60 00 	lds	r18, 0x0060	; 0x800060 <__DATA_REGION_ORIGIN__>
 60c:	90 e2       	ldi	r25, 0x20	; 32
 60e:	29 9f       	mul	r18, r25
 610:	90 01       	movw	r18, r0
 612:	11 24       	eor	r1, r1
 614:	84 2b       	or	r24, r20
 616:	28 2b       	or	r18, r24
 618:	20 93 80 00 	sts	0x0080, r18	; 0x800080 <tData+0x2>
 61c:	06 c0       	rjmp	.+12     	; 0x62a <main+0x7a>
	else tData[2]=Dec2BCD(Hour);
 61e:	80 91 66 00 	lds	r24, 0x0066	; 0x800066 <Hour>
 622:	0e 94 ba 01 	call	0x374	; 0x374 <Dec2BCD>
 626:	80 93 80 00 	sts	0x0080, r24	; 0x800080 <tData+0x2>
	tData[3]=Dec2BCD(Day);
 62a:	80 91 65 00 	lds	r24, 0x0065	; 0x800065 <Day>
 62e:	0e 94 ba 01 	call	0x374	; 0x374 <Dec2BCD>
 632:	ce e7       	ldi	r28, 0x7E	; 126
 634:	d0 e0       	ldi	r29, 0x00	; 0
 636:	8b 83       	std	Y+3, r24	; 0x03
	tData[4]=Dec2BCD(Date);
 638:	80 91 64 00 	lds	r24, 0x0064	; 0x800064 <Date>
 63c:	0e 94 ba 01 	call	0x374	; 0x374 <Dec2BCD>
 640:	8c 83       	std	Y+4, r24	; 0x04
	tData[5]=Dec2BCD(Month); 
 642:	80 91 63 00 	lds	r24, 0x0063	; 0x800063 <Month>
 646:	0e 94 ba 01 	call	0x374	; 0x374 <Dec2BCD>
 64a:	8d 83       	std	Y+5, r24	; 0x05
	tData[6]=Dec2BCD(Year); 		
 64c:	80 91 62 00 	lds	r24, 0x0062	; 0x800062 <Year>
 650:	0e 94 ba 01 	call	0x374	; 0x374 <Dec2BCD>
 654:	8e 83       	std	Y+6, r24	; 0x06
	TWI_Init(); //khoi dong TWI		
 656:	0e 94 49 00 	call	0x92	; 0x92 <TWI_Init>
	TWI_DS1307_wblock(0x00, tData, 7); //ghi lien tiep cac bien thoi gian vao DS1307
 65a:	47 e0       	ldi	r20, 0x07	; 7
 65c:	be 01       	movw	r22, r28
 65e:	80 e0       	ldi	r24, 0x00	; 0
 660:	0e 94 77 00 	call	0xee	; 0xee <TWI_DS1307_wblock>
 664:	83 e3       	ldi	r24, 0x33	; 51
 666:	97 e0       	ldi	r25, 0x07	; 7
 668:	01 97       	sbiw	r24, 0x01	; 1
 66a:	f1 f7       	brne	.-4      	; 0x668 <main+0xb8>
	//----------------------------------------------------------------------------------
	_delay_ms(1);	//cho DS1307 xu li 
	
	//doc va hien thi thoi gian lan dau tien******************************************
	TWI_DS1307_wadr(0x00); //set dia chi ve 0
 66c:	80 e0       	ldi	r24, 0x00	; 0
 66e:	0e 94 4f 00 	call	0x9e	; 0x9e <TWI_DS1307_wadr>
 672:	83 e3       	ldi	r24, 0x33	; 51
 674:	97 e0       	ldi	r25, 0x07	; 7
 676:	01 97       	sbiw	r24, 0x01	; 1
 678:	f1 f7       	brne	.-4      	; 0x676 <main+0xc6>
	_delay_ms(1);			//cho DS1307 xu li 
	TWI_DS1307_rblock(tData,7); //doc ca khoi thoi gian (7 bytes)	
 67a:	67 e0       	ldi	r22, 0x07	; 7
 67c:	ce 01       	movw	r24, r28
 67e:	0e 94 b4 00 	call	0x168	; 0x168 <TWI_DS1307_rblock>
	Display(); // hien thi ket qua len LCD	
 682:	0e 94 d0 01 	call	0x3a0	; 0x3a0 <Display>
 686:	ff cf       	rjmp	.-2      	; 0x686 <main+0xd6>

00000688 <__vector_11>:
		
	}
	return 0;
}

ISR (TIMER0_OVF_vect){           
 688:	1f 92       	push	r1
 68a:	0f 92       	push	r0
 68c:	0f b6       	in	r0, 0x3f	; 63
 68e:	0f 92       	push	r0
 690:	11 24       	eor	r1, r1
 692:	2f 93       	push	r18
 694:	3f 93       	push	r19
 696:	4f 93       	push	r20
 698:	5f 93       	push	r21
 69a:	6f 93       	push	r22
 69c:	7f 93       	push	r23
 69e:	8f 93       	push	r24
 6a0:	9f 93       	push	r25
 6a2:	af 93       	push	r26
 6a4:	bf 93       	push	r27
 6a6:	ef 93       	push	r30
 6a8:	ff 93       	push	r31
	Time_count++;
 6aa:	80 91 7c 00 	lds	r24, 0x007C	; 0x80007c <__data_end>
 6ae:	8f 5f       	subi	r24, 0xFF	; 255
 6b0:	80 93 7c 00 	sts	0x007C, r24	; 0x80007c <__data_end>
	if(Time_count>=10){ 
 6b4:	80 91 7c 00 	lds	r24, 0x007C	; 0x80007c <__data_end>
 6b8:	8a 30       	cpi	r24, 0x0A	; 10
 6ba:	08 f4       	brcc	.+2      	; 0x6be <__vector_11+0x36>
 6bc:	47 c0       	rjmp	.+142    	; 0x74c <__vector_11+0xc4>
		//doc DS1307
		TWI_DS1307_wadr(0x00); 				//set dia chi ve 0
 6be:	80 e0       	ldi	r24, 0x00	; 0
 6c0:	0e 94 4f 00 	call	0x9e	; 0x9e <TWI_DS1307_wadr>
 6c4:	83 e3       	ldi	r24, 0x33	; 51
 6c6:	97 e0       	ldi	r25, 0x07	; 7
 6c8:	01 97       	sbiw	r24, 0x01	; 1
 6ca:	f1 f7       	brne	.-4      	; 0x6c8 <__vector_11+0x40>
		_delay_ms(1);		   				//cho DS1307 xu li 
		TWI_DS1307_rblock(tData,7); 	//doc ca khoi thoi gian (7 bytes)		
 6cc:	67 e0       	ldi	r22, 0x07	; 7
 6ce:	8e e7       	ldi	r24, 0x7E	; 126
 6d0:	90 e0       	ldi	r25, 0x00	; 0
 6d2:	0e 94 b4 00 	call	0x168	; 0x168 <TWI_DS1307_rblock>
		//hien thi ket qua len LCD
		if(BCD2Dec(tData[0]) !=Second){ 	//chi hien thi ket qua khi da qua 1s
 6d6:	80 91 7e 00 	lds	r24, 0x007E	; 0x80007e <tData>
 6da:	0e 94 ad 01 	call	0x35a	; 0x35a <BCD2Dec>
 6de:	90 91 7d 00 	lds	r25, 0x007D	; 0x80007d <Second>
 6e2:	89 17       	cp	r24, r25
 6e4:	89 f1       	breq	.+98     	; 0x748 <__vector_11+0xc0>
			Second=BCD2Dec(tData[0] & 0x7F);
 6e6:	80 91 7e 00 	lds	r24, 0x007E	; 0x80007e <tData>
 6ea:	8f 77       	andi	r24, 0x7F	; 127
 6ec:	0e 94 ad 01 	call	0x35a	; 0x35a <BCD2Dec>
 6f0:	80 93 7d 00 	sts	0x007D, r24	; 0x80007d <Second>
			sprintf(dis, "%i",Second); 
 6f4:	80 91 7d 00 	lds	r24, 0x007D	; 0x80007d <Second>
 6f8:	1f 92       	push	r1
 6fa:	8f 93       	push	r24
 6fc:	8f e6       	ldi	r24, 0x6F	; 111
 6fe:	90 e0       	ldi	r25, 0x00	; 0
 700:	9f 93       	push	r25
 702:	8f 93       	push	r24
 704:	85 e8       	ldi	r24, 0x85	; 133
 706:	90 e0       	ldi	r25, 0x00	; 0
 708:	9f 93       	push	r25
 70a:	8f 93       	push	r24
 70c:	0e 94 b7 03 	call	0x76e	; 0x76e <sprintf>
			move_LCD(1,13); print_LCD("  ");
 710:	6d e0       	ldi	r22, 0x0D	; 13
 712:	81 e0       	ldi	r24, 0x01	; 1
 714:	0e 94 77 01 	call	0x2ee	; 0x2ee <move_LCD>
 718:	89 e7       	ldi	r24, 0x79	; 121
 71a:	90 e0       	ldi	r25, 0x00	; 0
 71c:	0e 94 9a 01 	call	0x334	; 0x334 <print_LCD>
			move_LCD(1,13); print_LCD(dis);
 720:	6d e0       	ldi	r22, 0x0D	; 13
 722:	81 e0       	ldi	r24, 0x01	; 1
 724:	0e 94 77 01 	call	0x2ee	; 0x2ee <move_LCD>
 728:	85 e8       	ldi	r24, 0x85	; 133
 72a:	90 e0       	ldi	r25, 0x00	; 0
 72c:	0e 94 9a 01 	call	0x334	; 0x334 <print_LCD>
			if (Second==0) Display(); 		//moi phut cap nhat 1 lan			
 730:	80 91 7d 00 	lds	r24, 0x007D	; 0x80007d <Second>
 734:	0f 90       	pop	r0
 736:	0f 90       	pop	r0
 738:	0f 90       	pop	r0
 73a:	0f 90       	pop	r0
 73c:	0f 90       	pop	r0
 73e:	0f 90       	pop	r0
 740:	81 11       	cpse	r24, r1
 742:	02 c0       	rjmp	.+4      	; 0x748 <__vector_11+0xc0>
 744:	0e 94 d0 01 	call	0x3a0	; 0x3a0 <Display>
		}
		Time_count=0; 
 748:	10 92 7c 00 	sts	0x007C, r1	; 0x80007c <__data_end>
	}
}
 74c:	ff 91       	pop	r31
 74e:	ef 91       	pop	r30
 750:	bf 91       	pop	r27
 752:	af 91       	pop	r26
 754:	9f 91       	pop	r25
 756:	8f 91       	pop	r24
 758:	7f 91       	pop	r23
 75a:	6f 91       	pop	r22
 75c:	5f 91       	pop	r21
 75e:	4f 91       	pop	r20
 760:	3f 91       	pop	r19
 762:	2f 91       	pop	r18
 764:	0f 90       	pop	r0
 766:	0f be       	out	0x3f, r0	; 63
 768:	0f 90       	pop	r0
 76a:	1f 90       	pop	r1
 76c:	18 95       	reti

0000076e <sprintf>:
 76e:	ae e0       	ldi	r26, 0x0E	; 14
 770:	b0 e0       	ldi	r27, 0x00	; 0
 772:	ed eb       	ldi	r30, 0xBD	; 189
 774:	f3 e0       	ldi	r31, 0x03	; 3
 776:	0c 94 78 06 	jmp	0xcf0	; 0xcf0 <__prologue_saves__+0x1c>
 77a:	0d 89       	ldd	r16, Y+21	; 0x15
 77c:	1e 89       	ldd	r17, Y+22	; 0x16
 77e:	86 e0       	ldi	r24, 0x06	; 6
 780:	8c 83       	std	Y+4, r24	; 0x04
 782:	1a 83       	std	Y+2, r17	; 0x02
 784:	09 83       	std	Y+1, r16	; 0x01
 786:	8f ef       	ldi	r24, 0xFF	; 255
 788:	9f e7       	ldi	r25, 0x7F	; 127
 78a:	9e 83       	std	Y+6, r25	; 0x06
 78c:	8d 83       	std	Y+5, r24	; 0x05
 78e:	ae 01       	movw	r20, r28
 790:	47 5e       	subi	r20, 0xE7	; 231
 792:	5f 4f       	sbci	r21, 0xFF	; 255
 794:	6f 89       	ldd	r22, Y+23	; 0x17
 796:	78 8d       	ldd	r23, Y+24	; 0x18
 798:	ce 01       	movw	r24, r28
 79a:	01 96       	adiw	r24, 0x01	; 1
 79c:	0e 94 d9 03 	call	0x7b2	; 0x7b2 <vfprintf>
 7a0:	ef 81       	ldd	r30, Y+7	; 0x07
 7a2:	f8 85       	ldd	r31, Y+8	; 0x08
 7a4:	e0 0f       	add	r30, r16
 7a6:	f1 1f       	adc	r31, r17
 7a8:	10 82       	st	Z, r1
 7aa:	2e 96       	adiw	r28, 0x0e	; 14
 7ac:	e4 e0       	ldi	r30, 0x04	; 4
 7ae:	0c 94 94 06 	jmp	0xd28	; 0xd28 <__epilogue_restores__+0x1c>

000007b2 <vfprintf>:
 7b2:	ab e0       	ldi	r26, 0x0B	; 11
 7b4:	b0 e0       	ldi	r27, 0x00	; 0
 7b6:	ef ed       	ldi	r30, 0xDF	; 223
 7b8:	f3 e0       	ldi	r31, 0x03	; 3
 7ba:	0c 94 6a 06 	jmp	0xcd4	; 0xcd4 <__prologue_saves__>
 7be:	6c 01       	movw	r12, r24
 7c0:	7b 01       	movw	r14, r22
 7c2:	8a 01       	movw	r16, r20
 7c4:	fc 01       	movw	r30, r24
 7c6:	17 82       	std	Z+7, r1	; 0x07
 7c8:	16 82       	std	Z+6, r1	; 0x06
 7ca:	83 81       	ldd	r24, Z+3	; 0x03
 7cc:	81 ff       	sbrs	r24, 1
 7ce:	cc c1       	rjmp	.+920    	; 0xb68 <__stack+0x309>
 7d0:	ce 01       	movw	r24, r28
 7d2:	01 96       	adiw	r24, 0x01	; 1
 7d4:	3c 01       	movw	r6, r24
 7d6:	f6 01       	movw	r30, r12
 7d8:	93 81       	ldd	r25, Z+3	; 0x03
 7da:	f7 01       	movw	r30, r14
 7dc:	93 fd       	sbrc	r25, 3
 7de:	85 91       	lpm	r24, Z+
 7e0:	93 ff       	sbrs	r25, 3
 7e2:	81 91       	ld	r24, Z+
 7e4:	7f 01       	movw	r14, r30
 7e6:	88 23       	and	r24, r24
 7e8:	09 f4       	brne	.+2      	; 0x7ec <vfprintf+0x3a>
 7ea:	ba c1       	rjmp	.+884    	; 0xb60 <__stack+0x301>
 7ec:	85 32       	cpi	r24, 0x25	; 37
 7ee:	39 f4       	brne	.+14     	; 0x7fe <vfprintf+0x4c>
 7f0:	93 fd       	sbrc	r25, 3
 7f2:	85 91       	lpm	r24, Z+
 7f4:	93 ff       	sbrs	r25, 3
 7f6:	81 91       	ld	r24, Z+
 7f8:	7f 01       	movw	r14, r30
 7fa:	85 32       	cpi	r24, 0x25	; 37
 7fc:	29 f4       	brne	.+10     	; 0x808 <__DATA_REGION_LENGTH__+0x8>
 7fe:	b6 01       	movw	r22, r12
 800:	90 e0       	ldi	r25, 0x00	; 0
 802:	0e 94 d0 05 	call	0xba0	; 0xba0 <fputc>
 806:	e7 cf       	rjmp	.-50     	; 0x7d6 <vfprintf+0x24>
 808:	91 2c       	mov	r9, r1
 80a:	21 2c       	mov	r2, r1
 80c:	31 2c       	mov	r3, r1
 80e:	ff e1       	ldi	r31, 0x1F	; 31
 810:	f3 15       	cp	r31, r3
 812:	d8 f0       	brcs	.+54     	; 0x84a <__DATA_REGION_LENGTH__+0x4a>
 814:	8b 32       	cpi	r24, 0x2B	; 43
 816:	79 f0       	breq	.+30     	; 0x836 <__DATA_REGION_LENGTH__+0x36>
 818:	38 f4       	brcc	.+14     	; 0x828 <__DATA_REGION_LENGTH__+0x28>
 81a:	80 32       	cpi	r24, 0x20	; 32
 81c:	79 f0       	breq	.+30     	; 0x83c <__DATA_REGION_LENGTH__+0x3c>
 81e:	83 32       	cpi	r24, 0x23	; 35
 820:	a1 f4       	brne	.+40     	; 0x84a <__DATA_REGION_LENGTH__+0x4a>
 822:	23 2d       	mov	r18, r3
 824:	20 61       	ori	r18, 0x10	; 16
 826:	1d c0       	rjmp	.+58     	; 0x862 <__stack+0x3>
 828:	8d 32       	cpi	r24, 0x2D	; 45
 82a:	61 f0       	breq	.+24     	; 0x844 <__DATA_REGION_LENGTH__+0x44>
 82c:	80 33       	cpi	r24, 0x30	; 48
 82e:	69 f4       	brne	.+26     	; 0x84a <__DATA_REGION_LENGTH__+0x4a>
 830:	23 2d       	mov	r18, r3
 832:	21 60       	ori	r18, 0x01	; 1
 834:	16 c0       	rjmp	.+44     	; 0x862 <__stack+0x3>
 836:	83 2d       	mov	r24, r3
 838:	82 60       	ori	r24, 0x02	; 2
 83a:	38 2e       	mov	r3, r24
 83c:	e3 2d       	mov	r30, r3
 83e:	e4 60       	ori	r30, 0x04	; 4
 840:	3e 2e       	mov	r3, r30
 842:	2a c0       	rjmp	.+84     	; 0x898 <__stack+0x39>
 844:	f3 2d       	mov	r31, r3
 846:	f8 60       	ori	r31, 0x08	; 8
 848:	1d c0       	rjmp	.+58     	; 0x884 <__stack+0x25>
 84a:	37 fc       	sbrc	r3, 7
 84c:	2d c0       	rjmp	.+90     	; 0x8a8 <__stack+0x49>
 84e:	20 ed       	ldi	r18, 0xD0	; 208
 850:	28 0f       	add	r18, r24
 852:	2a 30       	cpi	r18, 0x0A	; 10
 854:	40 f0       	brcs	.+16     	; 0x866 <__stack+0x7>
 856:	8e 32       	cpi	r24, 0x2E	; 46
 858:	b9 f4       	brne	.+46     	; 0x888 <__stack+0x29>
 85a:	36 fc       	sbrc	r3, 6
 85c:	81 c1       	rjmp	.+770    	; 0xb60 <__stack+0x301>
 85e:	23 2d       	mov	r18, r3
 860:	20 64       	ori	r18, 0x40	; 64
 862:	32 2e       	mov	r3, r18
 864:	19 c0       	rjmp	.+50     	; 0x898 <__stack+0x39>
 866:	36 fe       	sbrs	r3, 6
 868:	06 c0       	rjmp	.+12     	; 0x876 <__stack+0x17>
 86a:	8a e0       	ldi	r24, 0x0A	; 10
 86c:	98 9e       	mul	r9, r24
 86e:	20 0d       	add	r18, r0
 870:	11 24       	eor	r1, r1
 872:	92 2e       	mov	r9, r18
 874:	11 c0       	rjmp	.+34     	; 0x898 <__stack+0x39>
 876:	ea e0       	ldi	r30, 0x0A	; 10
 878:	2e 9e       	mul	r2, r30
 87a:	20 0d       	add	r18, r0
 87c:	11 24       	eor	r1, r1
 87e:	22 2e       	mov	r2, r18
 880:	f3 2d       	mov	r31, r3
 882:	f0 62       	ori	r31, 0x20	; 32
 884:	3f 2e       	mov	r3, r31
 886:	08 c0       	rjmp	.+16     	; 0x898 <__stack+0x39>
 888:	8c 36       	cpi	r24, 0x6C	; 108
 88a:	21 f4       	brne	.+8      	; 0x894 <__stack+0x35>
 88c:	83 2d       	mov	r24, r3
 88e:	80 68       	ori	r24, 0x80	; 128
 890:	38 2e       	mov	r3, r24
 892:	02 c0       	rjmp	.+4      	; 0x898 <__stack+0x39>
 894:	88 36       	cpi	r24, 0x68	; 104
 896:	41 f4       	brne	.+16     	; 0x8a8 <__stack+0x49>
 898:	f7 01       	movw	r30, r14
 89a:	93 fd       	sbrc	r25, 3
 89c:	85 91       	lpm	r24, Z+
 89e:	93 ff       	sbrs	r25, 3
 8a0:	81 91       	ld	r24, Z+
 8a2:	7f 01       	movw	r14, r30
 8a4:	81 11       	cpse	r24, r1
 8a6:	b3 cf       	rjmp	.-154    	; 0x80e <__DATA_REGION_LENGTH__+0xe>
 8a8:	98 2f       	mov	r25, r24
 8aa:	9f 7d       	andi	r25, 0xDF	; 223
 8ac:	95 54       	subi	r25, 0x45	; 69
 8ae:	93 30       	cpi	r25, 0x03	; 3
 8b0:	28 f4       	brcc	.+10     	; 0x8bc <__stack+0x5d>
 8b2:	0c 5f       	subi	r16, 0xFC	; 252
 8b4:	1f 4f       	sbci	r17, 0xFF	; 255
 8b6:	9f e3       	ldi	r25, 0x3F	; 63
 8b8:	99 83       	std	Y+1, r25	; 0x01
 8ba:	0d c0       	rjmp	.+26     	; 0x8d6 <__stack+0x77>
 8bc:	83 36       	cpi	r24, 0x63	; 99
 8be:	31 f0       	breq	.+12     	; 0x8cc <__stack+0x6d>
 8c0:	83 37       	cpi	r24, 0x73	; 115
 8c2:	71 f0       	breq	.+28     	; 0x8e0 <__stack+0x81>
 8c4:	83 35       	cpi	r24, 0x53	; 83
 8c6:	09 f0       	breq	.+2      	; 0x8ca <__stack+0x6b>
 8c8:	59 c0       	rjmp	.+178    	; 0x97c <__stack+0x11d>
 8ca:	21 c0       	rjmp	.+66     	; 0x90e <__stack+0xaf>
 8cc:	f8 01       	movw	r30, r16
 8ce:	80 81       	ld	r24, Z
 8d0:	89 83       	std	Y+1, r24	; 0x01
 8d2:	0e 5f       	subi	r16, 0xFE	; 254
 8d4:	1f 4f       	sbci	r17, 0xFF	; 255
 8d6:	88 24       	eor	r8, r8
 8d8:	83 94       	inc	r8
 8da:	91 2c       	mov	r9, r1
 8dc:	53 01       	movw	r10, r6
 8de:	13 c0       	rjmp	.+38     	; 0x906 <__stack+0xa7>
 8e0:	28 01       	movw	r4, r16
 8e2:	f2 e0       	ldi	r31, 0x02	; 2
 8e4:	4f 0e       	add	r4, r31
 8e6:	51 1c       	adc	r5, r1
 8e8:	f8 01       	movw	r30, r16
 8ea:	a0 80       	ld	r10, Z
 8ec:	b1 80       	ldd	r11, Z+1	; 0x01
 8ee:	36 fe       	sbrs	r3, 6
 8f0:	03 c0       	rjmp	.+6      	; 0x8f8 <__stack+0x99>
 8f2:	69 2d       	mov	r22, r9
 8f4:	70 e0       	ldi	r23, 0x00	; 0
 8f6:	02 c0       	rjmp	.+4      	; 0x8fc <__stack+0x9d>
 8f8:	6f ef       	ldi	r22, 0xFF	; 255
 8fa:	7f ef       	ldi	r23, 0xFF	; 255
 8fc:	c5 01       	movw	r24, r10
 8fe:	0e 94 c5 05 	call	0xb8a	; 0xb8a <strnlen>
 902:	4c 01       	movw	r8, r24
 904:	82 01       	movw	r16, r4
 906:	f3 2d       	mov	r31, r3
 908:	ff 77       	andi	r31, 0x7F	; 127
 90a:	3f 2e       	mov	r3, r31
 90c:	16 c0       	rjmp	.+44     	; 0x93a <__stack+0xdb>
 90e:	28 01       	movw	r4, r16
 910:	22 e0       	ldi	r18, 0x02	; 2
 912:	42 0e       	add	r4, r18
 914:	51 1c       	adc	r5, r1
 916:	f8 01       	movw	r30, r16
 918:	a0 80       	ld	r10, Z
 91a:	b1 80       	ldd	r11, Z+1	; 0x01
 91c:	36 fe       	sbrs	r3, 6
 91e:	03 c0       	rjmp	.+6      	; 0x926 <__stack+0xc7>
 920:	69 2d       	mov	r22, r9
 922:	70 e0       	ldi	r23, 0x00	; 0
 924:	02 c0       	rjmp	.+4      	; 0x92a <__stack+0xcb>
 926:	6f ef       	ldi	r22, 0xFF	; 255
 928:	7f ef       	ldi	r23, 0xFF	; 255
 92a:	c5 01       	movw	r24, r10
 92c:	0e 94 ba 05 	call	0xb74	; 0xb74 <strnlen_P>
 930:	4c 01       	movw	r8, r24
 932:	f3 2d       	mov	r31, r3
 934:	f0 68       	ori	r31, 0x80	; 128
 936:	3f 2e       	mov	r3, r31
 938:	82 01       	movw	r16, r4
 93a:	33 fc       	sbrc	r3, 3
 93c:	1b c0       	rjmp	.+54     	; 0x974 <__stack+0x115>
 93e:	82 2d       	mov	r24, r2
 940:	90 e0       	ldi	r25, 0x00	; 0
 942:	88 16       	cp	r8, r24
 944:	99 06       	cpc	r9, r25
 946:	b0 f4       	brcc	.+44     	; 0x974 <__stack+0x115>
 948:	b6 01       	movw	r22, r12
 94a:	80 e2       	ldi	r24, 0x20	; 32
 94c:	90 e0       	ldi	r25, 0x00	; 0
 94e:	0e 94 d0 05 	call	0xba0	; 0xba0 <fputc>
 952:	2a 94       	dec	r2
 954:	f4 cf       	rjmp	.-24     	; 0x93e <__stack+0xdf>
 956:	f5 01       	movw	r30, r10
 958:	37 fc       	sbrc	r3, 7
 95a:	85 91       	lpm	r24, Z+
 95c:	37 fe       	sbrs	r3, 7
 95e:	81 91       	ld	r24, Z+
 960:	5f 01       	movw	r10, r30
 962:	b6 01       	movw	r22, r12
 964:	90 e0       	ldi	r25, 0x00	; 0
 966:	0e 94 d0 05 	call	0xba0	; 0xba0 <fputc>
 96a:	21 10       	cpse	r2, r1
 96c:	2a 94       	dec	r2
 96e:	21 e0       	ldi	r18, 0x01	; 1
 970:	82 1a       	sub	r8, r18
 972:	91 08       	sbc	r9, r1
 974:	81 14       	cp	r8, r1
 976:	91 04       	cpc	r9, r1
 978:	71 f7       	brne	.-36     	; 0x956 <__stack+0xf7>
 97a:	e8 c0       	rjmp	.+464    	; 0xb4c <__stack+0x2ed>
 97c:	84 36       	cpi	r24, 0x64	; 100
 97e:	11 f0       	breq	.+4      	; 0x984 <__stack+0x125>
 980:	89 36       	cpi	r24, 0x69	; 105
 982:	41 f5       	brne	.+80     	; 0x9d4 <__stack+0x175>
 984:	f8 01       	movw	r30, r16
 986:	37 fe       	sbrs	r3, 7
 988:	07 c0       	rjmp	.+14     	; 0x998 <__stack+0x139>
 98a:	60 81       	ld	r22, Z
 98c:	71 81       	ldd	r23, Z+1	; 0x01
 98e:	82 81       	ldd	r24, Z+2	; 0x02
 990:	93 81       	ldd	r25, Z+3	; 0x03
 992:	0c 5f       	subi	r16, 0xFC	; 252
 994:	1f 4f       	sbci	r17, 0xFF	; 255
 996:	08 c0       	rjmp	.+16     	; 0x9a8 <__stack+0x149>
 998:	60 81       	ld	r22, Z
 99a:	71 81       	ldd	r23, Z+1	; 0x01
 99c:	07 2e       	mov	r0, r23
 99e:	00 0c       	add	r0, r0
 9a0:	88 0b       	sbc	r24, r24
 9a2:	99 0b       	sbc	r25, r25
 9a4:	0e 5f       	subi	r16, 0xFE	; 254
 9a6:	1f 4f       	sbci	r17, 0xFF	; 255
 9a8:	f3 2d       	mov	r31, r3
 9aa:	ff 76       	andi	r31, 0x6F	; 111
 9ac:	3f 2e       	mov	r3, r31
 9ae:	97 ff       	sbrs	r25, 7
 9b0:	09 c0       	rjmp	.+18     	; 0x9c4 <__stack+0x165>
 9b2:	90 95       	com	r25
 9b4:	80 95       	com	r24
 9b6:	70 95       	com	r23
 9b8:	61 95       	neg	r22
 9ba:	7f 4f       	sbci	r23, 0xFF	; 255
 9bc:	8f 4f       	sbci	r24, 0xFF	; 255
 9be:	9f 4f       	sbci	r25, 0xFF	; 255
 9c0:	f0 68       	ori	r31, 0x80	; 128
 9c2:	3f 2e       	mov	r3, r31
 9c4:	2a e0       	ldi	r18, 0x0A	; 10
 9c6:	30 e0       	ldi	r19, 0x00	; 0
 9c8:	a3 01       	movw	r20, r6
 9ca:	0e 94 0c 06 	call	0xc18	; 0xc18 <__ultoa_invert>
 9ce:	88 2e       	mov	r8, r24
 9d0:	86 18       	sub	r8, r6
 9d2:	45 c0       	rjmp	.+138    	; 0xa5e <__stack+0x1ff>
 9d4:	85 37       	cpi	r24, 0x75	; 117
 9d6:	31 f4       	brne	.+12     	; 0x9e4 <__stack+0x185>
 9d8:	23 2d       	mov	r18, r3
 9da:	2f 7e       	andi	r18, 0xEF	; 239
 9dc:	b2 2e       	mov	r11, r18
 9de:	2a e0       	ldi	r18, 0x0A	; 10
 9e0:	30 e0       	ldi	r19, 0x00	; 0
 9e2:	25 c0       	rjmp	.+74     	; 0xa2e <__stack+0x1cf>
 9e4:	93 2d       	mov	r25, r3
 9e6:	99 7f       	andi	r25, 0xF9	; 249
 9e8:	b9 2e       	mov	r11, r25
 9ea:	8f 36       	cpi	r24, 0x6F	; 111
 9ec:	c1 f0       	breq	.+48     	; 0xa1e <__stack+0x1bf>
 9ee:	18 f4       	brcc	.+6      	; 0x9f6 <__stack+0x197>
 9f0:	88 35       	cpi	r24, 0x58	; 88
 9f2:	79 f0       	breq	.+30     	; 0xa12 <__stack+0x1b3>
 9f4:	b5 c0       	rjmp	.+362    	; 0xb60 <__stack+0x301>
 9f6:	80 37       	cpi	r24, 0x70	; 112
 9f8:	19 f0       	breq	.+6      	; 0xa00 <__stack+0x1a1>
 9fa:	88 37       	cpi	r24, 0x78	; 120
 9fc:	21 f0       	breq	.+8      	; 0xa06 <__stack+0x1a7>
 9fe:	b0 c0       	rjmp	.+352    	; 0xb60 <__stack+0x301>
 a00:	e9 2f       	mov	r30, r25
 a02:	e0 61       	ori	r30, 0x10	; 16
 a04:	be 2e       	mov	r11, r30
 a06:	b4 fe       	sbrs	r11, 4
 a08:	0d c0       	rjmp	.+26     	; 0xa24 <__stack+0x1c5>
 a0a:	fb 2d       	mov	r31, r11
 a0c:	f4 60       	ori	r31, 0x04	; 4
 a0e:	bf 2e       	mov	r11, r31
 a10:	09 c0       	rjmp	.+18     	; 0xa24 <__stack+0x1c5>
 a12:	34 fe       	sbrs	r3, 4
 a14:	0a c0       	rjmp	.+20     	; 0xa2a <__stack+0x1cb>
 a16:	29 2f       	mov	r18, r25
 a18:	26 60       	ori	r18, 0x06	; 6
 a1a:	b2 2e       	mov	r11, r18
 a1c:	06 c0       	rjmp	.+12     	; 0xa2a <__stack+0x1cb>
 a1e:	28 e0       	ldi	r18, 0x08	; 8
 a20:	30 e0       	ldi	r19, 0x00	; 0
 a22:	05 c0       	rjmp	.+10     	; 0xa2e <__stack+0x1cf>
 a24:	20 e1       	ldi	r18, 0x10	; 16
 a26:	30 e0       	ldi	r19, 0x00	; 0
 a28:	02 c0       	rjmp	.+4      	; 0xa2e <__stack+0x1cf>
 a2a:	20 e1       	ldi	r18, 0x10	; 16
 a2c:	32 e0       	ldi	r19, 0x02	; 2
 a2e:	f8 01       	movw	r30, r16
 a30:	b7 fe       	sbrs	r11, 7
 a32:	07 c0       	rjmp	.+14     	; 0xa42 <__stack+0x1e3>
 a34:	60 81       	ld	r22, Z
 a36:	71 81       	ldd	r23, Z+1	; 0x01
 a38:	82 81       	ldd	r24, Z+2	; 0x02
 a3a:	93 81       	ldd	r25, Z+3	; 0x03
 a3c:	0c 5f       	subi	r16, 0xFC	; 252
 a3e:	1f 4f       	sbci	r17, 0xFF	; 255
 a40:	06 c0       	rjmp	.+12     	; 0xa4e <__stack+0x1ef>
 a42:	60 81       	ld	r22, Z
 a44:	71 81       	ldd	r23, Z+1	; 0x01
 a46:	80 e0       	ldi	r24, 0x00	; 0
 a48:	90 e0       	ldi	r25, 0x00	; 0
 a4a:	0e 5f       	subi	r16, 0xFE	; 254
 a4c:	1f 4f       	sbci	r17, 0xFF	; 255
 a4e:	a3 01       	movw	r20, r6
 a50:	0e 94 0c 06 	call	0xc18	; 0xc18 <__ultoa_invert>
 a54:	88 2e       	mov	r8, r24
 a56:	86 18       	sub	r8, r6
 a58:	fb 2d       	mov	r31, r11
 a5a:	ff 77       	andi	r31, 0x7F	; 127
 a5c:	3f 2e       	mov	r3, r31
 a5e:	36 fe       	sbrs	r3, 6
 a60:	0d c0       	rjmp	.+26     	; 0xa7c <__stack+0x21d>
 a62:	23 2d       	mov	r18, r3
 a64:	2e 7f       	andi	r18, 0xFE	; 254
 a66:	a2 2e       	mov	r10, r18
 a68:	89 14       	cp	r8, r9
 a6a:	58 f4       	brcc	.+22     	; 0xa82 <__stack+0x223>
 a6c:	34 fe       	sbrs	r3, 4
 a6e:	0b c0       	rjmp	.+22     	; 0xa86 <__stack+0x227>
 a70:	32 fc       	sbrc	r3, 2
 a72:	09 c0       	rjmp	.+18     	; 0xa86 <__stack+0x227>
 a74:	83 2d       	mov	r24, r3
 a76:	8e 7e       	andi	r24, 0xEE	; 238
 a78:	a8 2e       	mov	r10, r24
 a7a:	05 c0       	rjmp	.+10     	; 0xa86 <__stack+0x227>
 a7c:	b8 2c       	mov	r11, r8
 a7e:	a3 2c       	mov	r10, r3
 a80:	03 c0       	rjmp	.+6      	; 0xa88 <__stack+0x229>
 a82:	b8 2c       	mov	r11, r8
 a84:	01 c0       	rjmp	.+2      	; 0xa88 <__stack+0x229>
 a86:	b9 2c       	mov	r11, r9
 a88:	a4 fe       	sbrs	r10, 4
 a8a:	0f c0       	rjmp	.+30     	; 0xaaa <__stack+0x24b>
 a8c:	fe 01       	movw	r30, r28
 a8e:	e8 0d       	add	r30, r8
 a90:	f1 1d       	adc	r31, r1
 a92:	80 81       	ld	r24, Z
 a94:	80 33       	cpi	r24, 0x30	; 48
 a96:	21 f4       	brne	.+8      	; 0xaa0 <__stack+0x241>
 a98:	9a 2d       	mov	r25, r10
 a9a:	99 7e       	andi	r25, 0xE9	; 233
 a9c:	a9 2e       	mov	r10, r25
 a9e:	09 c0       	rjmp	.+18     	; 0xab2 <__stack+0x253>
 aa0:	a2 fe       	sbrs	r10, 2
 aa2:	06 c0       	rjmp	.+12     	; 0xab0 <__stack+0x251>
 aa4:	b3 94       	inc	r11
 aa6:	b3 94       	inc	r11
 aa8:	04 c0       	rjmp	.+8      	; 0xab2 <__stack+0x253>
 aaa:	8a 2d       	mov	r24, r10
 aac:	86 78       	andi	r24, 0x86	; 134
 aae:	09 f0       	breq	.+2      	; 0xab2 <__stack+0x253>
 ab0:	b3 94       	inc	r11
 ab2:	a3 fc       	sbrc	r10, 3
 ab4:	11 c0       	rjmp	.+34     	; 0xad8 <__stack+0x279>
 ab6:	a0 fe       	sbrs	r10, 0
 ab8:	06 c0       	rjmp	.+12     	; 0xac6 <__stack+0x267>
 aba:	b2 14       	cp	r11, r2
 abc:	88 f4       	brcc	.+34     	; 0xae0 <__stack+0x281>
 abe:	28 0c       	add	r2, r8
 ac0:	92 2c       	mov	r9, r2
 ac2:	9b 18       	sub	r9, r11
 ac4:	0e c0       	rjmp	.+28     	; 0xae2 <__stack+0x283>
 ac6:	b2 14       	cp	r11, r2
 ac8:	60 f4       	brcc	.+24     	; 0xae2 <__stack+0x283>
 aca:	b6 01       	movw	r22, r12
 acc:	80 e2       	ldi	r24, 0x20	; 32
 ace:	90 e0       	ldi	r25, 0x00	; 0
 ad0:	0e 94 d0 05 	call	0xba0	; 0xba0 <fputc>
 ad4:	b3 94       	inc	r11
 ad6:	f7 cf       	rjmp	.-18     	; 0xac6 <__stack+0x267>
 ad8:	b2 14       	cp	r11, r2
 ada:	18 f4       	brcc	.+6      	; 0xae2 <__stack+0x283>
 adc:	2b 18       	sub	r2, r11
 ade:	02 c0       	rjmp	.+4      	; 0xae4 <__stack+0x285>
 ae0:	98 2c       	mov	r9, r8
 ae2:	21 2c       	mov	r2, r1
 ae4:	a4 fe       	sbrs	r10, 4
 ae6:	10 c0       	rjmp	.+32     	; 0xb08 <__stack+0x2a9>
 ae8:	b6 01       	movw	r22, r12
 aea:	80 e3       	ldi	r24, 0x30	; 48
 aec:	90 e0       	ldi	r25, 0x00	; 0
 aee:	0e 94 d0 05 	call	0xba0	; 0xba0 <fputc>
 af2:	a2 fe       	sbrs	r10, 2
 af4:	17 c0       	rjmp	.+46     	; 0xb24 <__stack+0x2c5>
 af6:	a1 fc       	sbrc	r10, 1
 af8:	03 c0       	rjmp	.+6      	; 0xb00 <__stack+0x2a1>
 afa:	88 e7       	ldi	r24, 0x78	; 120
 afc:	90 e0       	ldi	r25, 0x00	; 0
 afe:	02 c0       	rjmp	.+4      	; 0xb04 <__stack+0x2a5>
 b00:	88 e5       	ldi	r24, 0x58	; 88
 b02:	90 e0       	ldi	r25, 0x00	; 0
 b04:	b6 01       	movw	r22, r12
 b06:	0c c0       	rjmp	.+24     	; 0xb20 <__stack+0x2c1>
 b08:	8a 2d       	mov	r24, r10
 b0a:	86 78       	andi	r24, 0x86	; 134
 b0c:	59 f0       	breq	.+22     	; 0xb24 <__stack+0x2c5>
 b0e:	a1 fe       	sbrs	r10, 1
 b10:	02 c0       	rjmp	.+4      	; 0xb16 <__stack+0x2b7>
 b12:	8b e2       	ldi	r24, 0x2B	; 43
 b14:	01 c0       	rjmp	.+2      	; 0xb18 <__stack+0x2b9>
 b16:	80 e2       	ldi	r24, 0x20	; 32
 b18:	a7 fc       	sbrc	r10, 7
 b1a:	8d e2       	ldi	r24, 0x2D	; 45
 b1c:	b6 01       	movw	r22, r12
 b1e:	90 e0       	ldi	r25, 0x00	; 0
 b20:	0e 94 d0 05 	call	0xba0	; 0xba0 <fputc>
 b24:	89 14       	cp	r8, r9
 b26:	38 f4       	brcc	.+14     	; 0xb36 <__stack+0x2d7>
 b28:	b6 01       	movw	r22, r12
 b2a:	80 e3       	ldi	r24, 0x30	; 48
 b2c:	90 e0       	ldi	r25, 0x00	; 0
 b2e:	0e 94 d0 05 	call	0xba0	; 0xba0 <fputc>
 b32:	9a 94       	dec	r9
 b34:	f7 cf       	rjmp	.-18     	; 0xb24 <__stack+0x2c5>
 b36:	8a 94       	dec	r8
 b38:	f3 01       	movw	r30, r6
 b3a:	e8 0d       	add	r30, r8
 b3c:	f1 1d       	adc	r31, r1
 b3e:	80 81       	ld	r24, Z
 b40:	b6 01       	movw	r22, r12
 b42:	90 e0       	ldi	r25, 0x00	; 0
 b44:	0e 94 d0 05 	call	0xba0	; 0xba0 <fputc>
 b48:	81 10       	cpse	r8, r1
 b4a:	f5 cf       	rjmp	.-22     	; 0xb36 <__stack+0x2d7>
 b4c:	22 20       	and	r2, r2
 b4e:	09 f4       	brne	.+2      	; 0xb52 <__stack+0x2f3>
 b50:	42 ce       	rjmp	.-892    	; 0x7d6 <vfprintf+0x24>
 b52:	b6 01       	movw	r22, r12
 b54:	80 e2       	ldi	r24, 0x20	; 32
 b56:	90 e0       	ldi	r25, 0x00	; 0
 b58:	0e 94 d0 05 	call	0xba0	; 0xba0 <fputc>
 b5c:	2a 94       	dec	r2
 b5e:	f6 cf       	rjmp	.-20     	; 0xb4c <__stack+0x2ed>
 b60:	f6 01       	movw	r30, r12
 b62:	86 81       	ldd	r24, Z+6	; 0x06
 b64:	97 81       	ldd	r25, Z+7	; 0x07
 b66:	02 c0       	rjmp	.+4      	; 0xb6c <__stack+0x30d>
 b68:	8f ef       	ldi	r24, 0xFF	; 255
 b6a:	9f ef       	ldi	r25, 0xFF	; 255
 b6c:	2b 96       	adiw	r28, 0x0b	; 11
 b6e:	e2 e1       	ldi	r30, 0x12	; 18
 b70:	0c 94 86 06 	jmp	0xd0c	; 0xd0c <__epilogue_restores__>

00000b74 <strnlen_P>:
 b74:	fc 01       	movw	r30, r24
 b76:	05 90       	lpm	r0, Z+
 b78:	61 50       	subi	r22, 0x01	; 1
 b7a:	70 40       	sbci	r23, 0x00	; 0
 b7c:	01 10       	cpse	r0, r1
 b7e:	d8 f7       	brcc	.-10     	; 0xb76 <strnlen_P+0x2>
 b80:	80 95       	com	r24
 b82:	90 95       	com	r25
 b84:	8e 0f       	add	r24, r30
 b86:	9f 1f       	adc	r25, r31
 b88:	08 95       	ret

00000b8a <strnlen>:
 b8a:	fc 01       	movw	r30, r24
 b8c:	61 50       	subi	r22, 0x01	; 1
 b8e:	70 40       	sbci	r23, 0x00	; 0
 b90:	01 90       	ld	r0, Z+
 b92:	01 10       	cpse	r0, r1
 b94:	d8 f7       	brcc	.-10     	; 0xb8c <strnlen+0x2>
 b96:	80 95       	com	r24
 b98:	90 95       	com	r25
 b9a:	8e 0f       	add	r24, r30
 b9c:	9f 1f       	adc	r25, r31
 b9e:	08 95       	ret

00000ba0 <fputc>:
 ba0:	0f 93       	push	r16
 ba2:	1f 93       	push	r17
 ba4:	cf 93       	push	r28
 ba6:	df 93       	push	r29
 ba8:	fb 01       	movw	r30, r22
 baa:	23 81       	ldd	r18, Z+3	; 0x03
 bac:	21 fd       	sbrc	r18, 1
 bae:	03 c0       	rjmp	.+6      	; 0xbb6 <fputc+0x16>
 bb0:	8f ef       	ldi	r24, 0xFF	; 255
 bb2:	9f ef       	ldi	r25, 0xFF	; 255
 bb4:	2c c0       	rjmp	.+88     	; 0xc0e <fputc+0x6e>
 bb6:	22 ff       	sbrs	r18, 2
 bb8:	16 c0       	rjmp	.+44     	; 0xbe6 <fputc+0x46>
 bba:	46 81       	ldd	r20, Z+6	; 0x06
 bbc:	57 81       	ldd	r21, Z+7	; 0x07
 bbe:	24 81       	ldd	r18, Z+4	; 0x04
 bc0:	35 81       	ldd	r19, Z+5	; 0x05
 bc2:	42 17       	cp	r20, r18
 bc4:	53 07       	cpc	r21, r19
 bc6:	44 f4       	brge	.+16     	; 0xbd8 <fputc+0x38>
 bc8:	a0 81       	ld	r26, Z
 bca:	b1 81       	ldd	r27, Z+1	; 0x01
 bcc:	9d 01       	movw	r18, r26
 bce:	2f 5f       	subi	r18, 0xFF	; 255
 bd0:	3f 4f       	sbci	r19, 0xFF	; 255
 bd2:	31 83       	std	Z+1, r19	; 0x01
 bd4:	20 83       	st	Z, r18
 bd6:	8c 93       	st	X, r24
 bd8:	26 81       	ldd	r18, Z+6	; 0x06
 bda:	37 81       	ldd	r19, Z+7	; 0x07
 bdc:	2f 5f       	subi	r18, 0xFF	; 255
 bde:	3f 4f       	sbci	r19, 0xFF	; 255
 be0:	37 83       	std	Z+7, r19	; 0x07
 be2:	26 83       	std	Z+6, r18	; 0x06
 be4:	14 c0       	rjmp	.+40     	; 0xc0e <fputc+0x6e>
 be6:	8b 01       	movw	r16, r22
 be8:	ec 01       	movw	r28, r24
 bea:	fb 01       	movw	r30, r22
 bec:	00 84       	ldd	r0, Z+8	; 0x08
 bee:	f1 85       	ldd	r31, Z+9	; 0x09
 bf0:	e0 2d       	mov	r30, r0
 bf2:	09 95       	icall
 bf4:	89 2b       	or	r24, r25
 bf6:	e1 f6       	brne	.-72     	; 0xbb0 <fputc+0x10>
 bf8:	d8 01       	movw	r26, r16
 bfa:	16 96       	adiw	r26, 0x06	; 6
 bfc:	8d 91       	ld	r24, X+
 bfe:	9c 91       	ld	r25, X
 c00:	17 97       	sbiw	r26, 0x07	; 7
 c02:	01 96       	adiw	r24, 0x01	; 1
 c04:	17 96       	adiw	r26, 0x07	; 7
 c06:	9c 93       	st	X, r25
 c08:	8e 93       	st	-X, r24
 c0a:	16 97       	sbiw	r26, 0x06	; 6
 c0c:	ce 01       	movw	r24, r28
 c0e:	df 91       	pop	r29
 c10:	cf 91       	pop	r28
 c12:	1f 91       	pop	r17
 c14:	0f 91       	pop	r16
 c16:	08 95       	ret

00000c18 <__ultoa_invert>:
 c18:	fa 01       	movw	r30, r20
 c1a:	aa 27       	eor	r26, r26
 c1c:	28 30       	cpi	r18, 0x08	; 8
 c1e:	51 f1       	breq	.+84     	; 0xc74 <__ultoa_invert+0x5c>
 c20:	20 31       	cpi	r18, 0x10	; 16
 c22:	81 f1       	breq	.+96     	; 0xc84 <__ultoa_invert+0x6c>
 c24:	e8 94       	clt
 c26:	6f 93       	push	r22
 c28:	6e 7f       	andi	r22, 0xFE	; 254
 c2a:	6e 5f       	subi	r22, 0xFE	; 254
 c2c:	7f 4f       	sbci	r23, 0xFF	; 255
 c2e:	8f 4f       	sbci	r24, 0xFF	; 255
 c30:	9f 4f       	sbci	r25, 0xFF	; 255
 c32:	af 4f       	sbci	r26, 0xFF	; 255
 c34:	b1 e0       	ldi	r27, 0x01	; 1
 c36:	3e d0       	rcall	.+124    	; 0xcb4 <__ultoa_invert+0x9c>
 c38:	b4 e0       	ldi	r27, 0x04	; 4
 c3a:	3c d0       	rcall	.+120    	; 0xcb4 <__ultoa_invert+0x9c>
 c3c:	67 0f       	add	r22, r23
 c3e:	78 1f       	adc	r23, r24
 c40:	89 1f       	adc	r24, r25
 c42:	9a 1f       	adc	r25, r26
 c44:	a1 1d       	adc	r26, r1
 c46:	68 0f       	add	r22, r24
 c48:	79 1f       	adc	r23, r25
 c4a:	8a 1f       	adc	r24, r26
 c4c:	91 1d       	adc	r25, r1
 c4e:	a1 1d       	adc	r26, r1
 c50:	6a 0f       	add	r22, r26
 c52:	71 1d       	adc	r23, r1
 c54:	81 1d       	adc	r24, r1
 c56:	91 1d       	adc	r25, r1
 c58:	a1 1d       	adc	r26, r1
 c5a:	20 d0       	rcall	.+64     	; 0xc9c <__ultoa_invert+0x84>
 c5c:	09 f4       	brne	.+2      	; 0xc60 <__ultoa_invert+0x48>
 c5e:	68 94       	set
 c60:	3f 91       	pop	r19
 c62:	2a e0       	ldi	r18, 0x0A	; 10
 c64:	26 9f       	mul	r18, r22
 c66:	11 24       	eor	r1, r1
 c68:	30 19       	sub	r19, r0
 c6a:	30 5d       	subi	r19, 0xD0	; 208
 c6c:	31 93       	st	Z+, r19
 c6e:	de f6       	brtc	.-74     	; 0xc26 <__ultoa_invert+0xe>
 c70:	cf 01       	movw	r24, r30
 c72:	08 95       	ret
 c74:	46 2f       	mov	r20, r22
 c76:	47 70       	andi	r20, 0x07	; 7
 c78:	40 5d       	subi	r20, 0xD0	; 208
 c7a:	41 93       	st	Z+, r20
 c7c:	b3 e0       	ldi	r27, 0x03	; 3
 c7e:	0f d0       	rcall	.+30     	; 0xc9e <__ultoa_invert+0x86>
 c80:	c9 f7       	brne	.-14     	; 0xc74 <__ultoa_invert+0x5c>
 c82:	f6 cf       	rjmp	.-20     	; 0xc70 <__ultoa_invert+0x58>
 c84:	46 2f       	mov	r20, r22
 c86:	4f 70       	andi	r20, 0x0F	; 15
 c88:	40 5d       	subi	r20, 0xD0	; 208
 c8a:	4a 33       	cpi	r20, 0x3A	; 58
 c8c:	18 f0       	brcs	.+6      	; 0xc94 <__ultoa_invert+0x7c>
 c8e:	49 5d       	subi	r20, 0xD9	; 217
 c90:	31 fd       	sbrc	r19, 1
 c92:	40 52       	subi	r20, 0x20	; 32
 c94:	41 93       	st	Z+, r20
 c96:	02 d0       	rcall	.+4      	; 0xc9c <__ultoa_invert+0x84>
 c98:	a9 f7       	brne	.-22     	; 0xc84 <__ultoa_invert+0x6c>
 c9a:	ea cf       	rjmp	.-44     	; 0xc70 <__ultoa_invert+0x58>
 c9c:	b4 e0       	ldi	r27, 0x04	; 4
 c9e:	a6 95       	lsr	r26
 ca0:	97 95       	ror	r25
 ca2:	87 95       	ror	r24
 ca4:	77 95       	ror	r23
 ca6:	67 95       	ror	r22
 ca8:	ba 95       	dec	r27
 caa:	c9 f7       	brne	.-14     	; 0xc9e <__ultoa_invert+0x86>
 cac:	00 97       	sbiw	r24, 0x00	; 0
 cae:	61 05       	cpc	r22, r1
 cb0:	71 05       	cpc	r23, r1
 cb2:	08 95       	ret
 cb4:	9b 01       	movw	r18, r22
 cb6:	ac 01       	movw	r20, r24
 cb8:	0a 2e       	mov	r0, r26
 cba:	06 94       	lsr	r0
 cbc:	57 95       	ror	r21
 cbe:	47 95       	ror	r20
 cc0:	37 95       	ror	r19
 cc2:	27 95       	ror	r18
 cc4:	ba 95       	dec	r27
 cc6:	c9 f7       	brne	.-14     	; 0xcba <__ultoa_invert+0xa2>
 cc8:	62 0f       	add	r22, r18
 cca:	73 1f       	adc	r23, r19
 ccc:	84 1f       	adc	r24, r20
 cce:	95 1f       	adc	r25, r21
 cd0:	a0 1d       	adc	r26, r0
 cd2:	08 95       	ret

00000cd4 <__prologue_saves__>:
 cd4:	2f 92       	push	r2
 cd6:	3f 92       	push	r3
 cd8:	4f 92       	push	r4
 cda:	5f 92       	push	r5
 cdc:	6f 92       	push	r6
 cde:	7f 92       	push	r7
 ce0:	8f 92       	push	r8
 ce2:	9f 92       	push	r9
 ce4:	af 92       	push	r10
 ce6:	bf 92       	push	r11
 ce8:	cf 92       	push	r12
 cea:	df 92       	push	r13
 cec:	ef 92       	push	r14
 cee:	ff 92       	push	r15
 cf0:	0f 93       	push	r16
 cf2:	1f 93       	push	r17
 cf4:	cf 93       	push	r28
 cf6:	df 93       	push	r29
 cf8:	cd b7       	in	r28, 0x3d	; 61
 cfa:	de b7       	in	r29, 0x3e	; 62
 cfc:	ca 1b       	sub	r28, r26
 cfe:	db 0b       	sbc	r29, r27
 d00:	0f b6       	in	r0, 0x3f	; 63
 d02:	f8 94       	cli
 d04:	de bf       	out	0x3e, r29	; 62
 d06:	0f be       	out	0x3f, r0	; 63
 d08:	cd bf       	out	0x3d, r28	; 61
 d0a:	09 94       	ijmp

00000d0c <__epilogue_restores__>:
 d0c:	2a 88       	ldd	r2, Y+18	; 0x12
 d0e:	39 88       	ldd	r3, Y+17	; 0x11
 d10:	48 88       	ldd	r4, Y+16	; 0x10
 d12:	5f 84       	ldd	r5, Y+15	; 0x0f
 d14:	6e 84       	ldd	r6, Y+14	; 0x0e
 d16:	7d 84       	ldd	r7, Y+13	; 0x0d
 d18:	8c 84       	ldd	r8, Y+12	; 0x0c
 d1a:	9b 84       	ldd	r9, Y+11	; 0x0b
 d1c:	aa 84       	ldd	r10, Y+10	; 0x0a
 d1e:	b9 84       	ldd	r11, Y+9	; 0x09
 d20:	c8 84       	ldd	r12, Y+8	; 0x08
 d22:	df 80       	ldd	r13, Y+7	; 0x07
 d24:	ee 80       	ldd	r14, Y+6	; 0x06
 d26:	fd 80       	ldd	r15, Y+5	; 0x05
 d28:	0c 81       	ldd	r16, Y+4	; 0x04
 d2a:	1b 81       	ldd	r17, Y+3	; 0x03
 d2c:	aa 81       	ldd	r26, Y+2	; 0x02
 d2e:	b9 81       	ldd	r27, Y+1	; 0x01
 d30:	ce 0f       	add	r28, r30
 d32:	d1 1d       	adc	r29, r1
 d34:	0f b6       	in	r0, 0x3f	; 63
 d36:	f8 94       	cli
 d38:	de bf       	out	0x3e, r29	; 62
 d3a:	0f be       	out	0x3f, r0	; 63
 d3c:	cd bf       	out	0x3d, r28	; 61
 d3e:	ed 01       	movw	r28, r26
 d40:	08 95       	ret

00000d42 <_exit>:
 d42:	f8 94       	cli

00000d44 <__stop_program>:
 d44:	ff cf       	rjmp	.-2      	; 0xd44 <__stop_program>
